	.text
	.file	"halide_buffer_t.cpp"
	.section	.rodata.cst16,"aM",@progbits,16
	.p2align	4                               # -- Begin function train_cost_model
.LCPI0_0:
	.quad	-9223372036854775808            # 0x8000000000000000
	.quad	0                               # 0x0
.LCPI0_8:
	.long	0                               # 0x0
	.long	32                              # 0x20
	.long	1                               # 0x1
	.long	0                               # 0x0
.LCPI0_9:
	.long	0                               # 0x0
	.long	32                              # 0x20
	.long	32                              # 0x20
	.long	0                               # 0x0
.LCPI0_10:
	.long	0                               # 0x0
	.long	8                               # 0x8
	.long	1                               # 0x1
	.long	0                               # 0x0
.LCPI0_11:
	.long	0                               # 0x0
	.long	40                              # 0x28
	.long	8                               # 0x8
	.long	0                               # 0x0
.LCPI0_12:
	.long	0                               # 0x0
	.long	7                               # 0x7
	.long	320                             # 0x140
	.long	0                               # 0x0
.LCPI0_13:
	.long	0                               # 0x0
	.long	24                              # 0x18
	.long	1                               # 0x1
	.long	0                               # 0x0
.LCPI0_14:
	.long	0                               # 0x0
	.long	39                              # 0x27
	.long	24                              # 0x18
	.long	0                               # 0x0
.LCPI0_15:
	.long	0                               # 0x0
	.long	40                              # 0x28
	.long	1                               # 0x1
	.long	0                               # 0x0
.LCPI0_16:
	.long	0                               # 0x0
	.long	7                               # 0x7
	.long	40                              # 0x28
	.long	0                               # 0x0
.LCPI0_17:
	.long	0                               # 0x0
	.long	4                               # 0x4
	.long	32                              # 0x20
	.long	0                               # 0x0
.LCPI0_18:
	.long	0                               # 0x0
	.long	4                               # 0x4
	.long	1024                            # 0x400
	.long	0                               # 0x0
.LCPI0_19:
	.long	0                               # 0x0
	.long	4                               # 0x4
	.long	8                               # 0x8
	.long	0                               # 0x0
.LCPI0_22:
	.long	0                               # 0x0
	.long	4                               # 0x4
	.long	24                              # 0x18
	.long	0                               # 0x0
.LCPI0_23:
	.long	0                               # 0x0
	.long	4                               # 0x4
	.long	936                             # 0x3a8
	.long	0                               # 0x0
.LCPI0_44:
	.long	24                              # 0x18
	.long	4                               # 0x4
	.long	24                              # 0x18
	.long	39                              # 0x27
	.section	.rodata.cst32,"aM",@progbits,32
	.p2align	5
.LCPI0_1:
	.quad	-9223372036854774784            # 0x8000000000000400
	.quad	256                             # 0x100
	.quad	32768                           # 0x8000
	.quad	65536                           # 0x10000
.LCPI0_2:
	.quad	64                              # 0x40
	.quad	4                               # 0x4
	.quad	8                               # 0x8
	.quad	2                               # 0x2
.LCPI0_3:
	.quad	16                              # 0x10
	.quad	32                              # 0x20
	.quad	512                             # 0x200
	.quad	2048                            # 0x800
.LCPI0_4:
	.quad	8192                            # 0x2000
	.quad	16384                           # 0x4000
	.quad	131072                          # 0x20000
	.quad	524288                          # 0x80000
.LCPI0_20:
	.long	0                               # 0x0
	.long	8                               # 0x8
	.long	1                               # 0x1
	.long	0                               # 0x0
	.long	0                               # 0x0
	.long	40                              # 0x28
	.long	8                               # 0x8
	.long	0                               # 0x0
.LCPI0_21:
	.long	0                               # 0x0
	.long	7                               # 0x7
	.long	320                             # 0x140
	.long	0                               # 0x0
	.long	0                               # 0x0
	.long	4                               # 0x4
	.long	2240                            # 0x8c0
	.long	0                               # 0x0
.LCPI0_24:
	.long	73730                           # 0x12002
	.long	3                               # 0x3
	.long	73730                           # 0x12002
	.long	1                               # 0x1
	.long	73730                           # 0x12002
	.long	1                               # 0x1
	.long	73730                           # 0x12002
	.long	2                               # 0x2
.LCPI0_25:
	.long	73730                           # 0x12002
	.long	3                               # 0x3
	.long	73730                           # 0x12002
	.long	2                               # 0x2
	.long	73730                           # 0x12002
	.long	4                               # 0x4
	.long	73730                           # 0x12002
	.long	2                               # 0x2
.LCPI0_26:
	.quad	1073741824                      # 0x40000000
	.quad	2147483648                      # 0x80000000
	.quad	4294967296                      # 0x100000000
	.quad	8589934592                      # 0x200000000
.LCPI0_27:
	.quad	4194304                         # 0x400000
	.quad	8388608                         # 0x800000
	.quad	16777216                        # 0x1000000
	.quad	33554432                        # 0x2000000
.LCPI0_28:
	.quad	17179869184                     # 0x400000000
	.quad	34359738368                     # 0x800000000
	.quad	68719476736                     # 0x1000000000
	.quad	137438953472                    # 0x2000000000
.LCPI0_29:
	.quad	67108864                        # 0x4000000
	.quad	134217728                       # 0x8000000
	.quad	268435456                       # 0x10000000
	.quad	536870912                       # 0x20000000
.LCPI0_30:
	.quad	0                               # 0x0
	.quad	0                               # 0x0
	.quad	36028797018963968               # 0x80000000000000
	.quad	0                               # 0x0
.LCPI0_31:
	.quad	1024                            # 0x400
	.quad	2048                            # 0x800
	.quad	0                               # 0x0
	.quad	4096                            # 0x1000
.LCPI0_32:
	.quad	562949953421312                 # 0x2000000000000
	.quad	35184372088832                  # 0x200000000000
	.quad	2251799813685248                # 0x8000000000000
	.quad	9007199254740992                # 0x20000000000000
.LCPI0_33:
	.quad	0                               # 0x0
	.quad	0                               # 0x0
	.quad	8796093022208                   # 0x80000000000
	.quad	0                               # 0x0
.LCPI0_34:
	.quad	16                              # 0x10
	.quad	32                              # 0x20
	.quad	0                               # 0x0
	.quad	64                              # 0x40
.LCPI0_35:
	.quad	0                               # 0x0
	.quad	144115188075855872              # 0x200000000000000
	.quad	576460752303423488              # 0x800000000000000
	.quad	0                               # 0x0
.LCPI0_36:
	.quad	8192                            # 0x2000
	.quad	0                               # 0x0
	.quad	0                               # 0x0
	.quad	16384                           # 0x4000
.LCPI0_37:
	.quad	0                               # 0x0
	.quad	1099511627776                   # 0x10000000000
	.quad	0                               # 0x0
	.quad	0                               # 0x0
.LCPI0_38:
	.quad	2                               # 0x2
	.quad	0                               # 0x0
	.quad	4                               # 0x4
	.quad	8                               # 0x8
.LCPI0_39:
	.quad	0                               # 0x0
	.quad	140737488355328                 # 0x800000000000
	.quad	0                               # 0x0
	.quad	0                               # 0x0
.LCPI0_40:
	.quad	128                             # 0x80
	.quad	0                               # 0x0
	.quad	256                             # 0x100
	.quad	512                             # 0x200
.LCPI0_41:
	.quad	32768                           # 0x8000
	.quad	65536                           # 0x10000
	.quad	131072                          # 0x20000
	.quad	262144                          # 0x40000
.LCPI0_42:
	.quad	0                               # 0x0
	.quad	4611686018427387904             # 0x4000000000000000
	.quad	0                               # 0x0
	.quad	0                               # 0x0
.LCPI0_43:
	.quad	524288                          # 0x80000
	.quad	0                               # 0x0
	.quad	1048576                         # 0x100000
	.quad	2097152                         # 0x200000
.LCPI0_45:
	.quad	274877906944                    # 0x4000000000
	.quad	1099511627776                   # 0x10000000000
	.quad	4398046511104                   # 0x40000000000
	.quad	17592186044416                  # 0x100000000000
.LCPI0_46:
	.quad	65536                           # 0x10000
	.quad	262144                          # 0x40000
	.quad	128                             # 0x80
	.quad	1048576                         # 0x100000
.LCPI0_47:
	.quad	8                               # 0x8
	.quad	512                             # 0x200
	.quad	2048                            # 0x800
	.quad	16384                           # 0x4000
.LCPI0_48:
	.quad	4194304                         # 0x400000
	.quad	16777216                        # 0x1000000
	.quad	67108864                        # 0x4000000
	.quad	268435456                       # 0x10000000
.LCPI0_49:
	.quad	0                               # 0x0
	.quad	0                               # 0x0
	.quad	0                               # 0x0
	.quad	2                               # 0x2
.LCPI0_50:
	.quad	2305843009213693952             # 0x2000000000000000
	.quad	4611686018427387904             # 0x4000000000000000
	.quad	1152921504606846976             # 0x1000000000000000
	.quad	0                               # 0x0
.LCPI0_51:
	.quad	1073741824                      # 0x40000000
	.quad	4294967296                      # 0x100000000
	.quad	17179869184                     # 0x400000000
	.quad	68719476736                     # 0x1000000000
.LCPI0_52:
	.quad	72057594037927936               # 0x100000000000000
	.quad	288230376151711744              # 0x400000000000000
	.quad	576460752303423488              # 0x800000000000000
	.quad	144115188075855872              # 0x200000000000000
.LCPI0_53:
	.quad	9007199254740992                # 0x20000000000000
	.quad	18014398509481984               # 0x40000000000000
	.quad	4503599627370496                # 0x10000000000000
	.quad	36028797018963968               # 0x80000000000000
.LCPI0_54:
	.quad	-9222809086901354496            # 0x8002000000000000
	.quad	1125899906842624                # 0x4000000000000
	.quad	281474976710656                 # 0x1000000000000
	.quad	2251799813685248                # 0x8000000000000
.LCPI0_55:
	.long	1                               # 0x1
	.long	0                               # 0x0
	.long	39                              # 0x27
	.long	1                               # 0x1
	.long	1                               # 0x1
	.long	1                               # 0x1
	.long	1                               # 0x1
	.long	1                               # 0x1
.LCPI0_56:
	.long	1                               # 0x1
	.long	0                               # 0x0
	.long	32                              # 0x20
	.long	0                               # 0x0
	.long	4                               # 0x4
	.long	0                               # 0x0
	.long	8                               # 0x8
	.long	1                               # 0x1
.LCPI0_57:
	.long	40                              # 0x28
	.long	0                               # 0x0
	.long	7                               # 0x7
	.long	0                               # 0x0
	.long	24                              # 0x18
	.long	1                               # 0x1
	.long	0                               # 0x0
	.long	24                              # 0x18
.LCPI0_58:
	.long	1                               # 0x1
	.long	0                               # 0x0
	.long	32                              # 0x20
	.long	1                               # 0x1
	.long	0                               # 0x0
	.long	4                               # 0x4
	.long	0                               # 0x0
	.long	32                              # 0x20
.LCPI0_59:
	.quad	2097152                         # 0x200000
	.quad	4194304                         # 0x400000
	.quad	16777216                        # 0x1000000
	.quad	33554432                        # 0x2000000
.LCPI0_60:
	.quad	64                              # 0x40
	.quad	16                              # 0x10
	.quad	256                             # 0x100
	.quad	512                             # 0x200
.LCPI0_61:
	.quad	536870912                       # 0x20000000
	.quad	2147483648                      # 0x80000000
	.quad	4294967296                      # 0x100000000
	.quad	1073741824                      # 0x40000000
.LCPI0_62:
	.quad	8192                            # 0x2000
	.quad	16384                           # 0x4000
	.quad	32768                           # 0x8000
	.quad	65536                           # 0x10000
.LCPI0_63:
	.quad	131072                          # 0x20000
	.quad	524288                          # 0x80000
	.quad	1048576                         # 0x100000
	.quad	262144                          # 0x40000
.LCPI0_64:
	.quad	2                               # 0x2
	.quad	4                               # 0x4
	.quad	8                               # 0x8
	.quad	32                              # 0x20
.LCPI0_65:
	.quad	8388608                         # 0x800000
	.quad	67108864                        # 0x4000000
	.quad	134217728                       # 0x8000000
	.quad	268435456                       # 0x10000000
.LCPI0_66:
	.quad	128                             # 0x80
	.quad	1024                            # 0x400
	.quad	2048                            # 0x800
	.quad	4096                            # 0x1000
.LCPI0_67:
	.long	7                               # 0x7
	.long	0                               # 0x0
	.long	4                               # 0x4
	.long	0                               # 0x0
	.long	24                              # 0x18
	.long	1                               # 0x1
	.long	0                               # 0x0
	.long	4                               # 0x4
.LCPI0_68:
	.long	0                               # 0x0
	.long	4                               # 0x4
	.long	0                               # 0x0
	.long	8                               # 0x8
	.long	1                               # 0x1
	.long	0                               # 0x0
	.long	40                              # 0x28
	.long	0                               # 0x0
.LCPI0_69:
	.quad	8589934592                      # 0x200000000
	.quad	17179869184                     # 0x400000000
	.quad	68719476736                     # 0x1000000000
	.quad	137438953472                    # 0x2000000000
.LCPI0_70:
	.quad	2199023255552                   # 0x20000000000
	.quad	4398046511104                   # 0x40000000000
	.quad	8796093022208                   # 0x80000000000
	.quad	35184372088832                  # 0x200000000000
.LCPI0_71:
	.quad	34359738368                     # 0x800000000
	.quad	274877906944                    # 0x4000000000
	.quad	549755813888                    # 0x8000000000
	.quad	1099511627776                   # 0x10000000000
.LCPI0_72:
	.quad	70368744177664                  # 0x400000000000
	.quad	17592186044416                  # 0x100000000000
	.quad	140737488355328                 # 0x800000000000
	.quad	281474976710656                 # 0x1000000000000
.LCPI0_73:
	.quad	256                             # 0x100
	.quad	128                             # 0x80
	.quad	1024                            # 0x400
	.quad	576460752303423488              # 0x800000000000000
.LCPI0_74:
	.quad	2                               # 0x2
	.quad	9007199254740992                # 0x20000000000000
	.quad	4                               # 0x4
	.quad	18014398509481984               # 0x40000000000000
.LCPI0_75:
	.quad	512                             # 0x200
	.quad	2048                            # 0x800
	.quad	1152921504606846976             # 0x1000000000000000
	.quad	4096                            # 0x1000
.LCPI0_76:
	.quad	32                              # 0x20
	.quad	144115188075855872              # 0x200000000000000
	.quad	288230376151711744              # 0x400000000000000
	.quad	64                              # 0x40
.LCPI0_77:
	.quad	32768                           # 0x8000
	.quad	131072                          # 0x20000
	.quad	4611686018427387904             # 0x4000000000000000
	.quad	262144                          # 0x40000
.LCPI0_78:
	.quad	16384                           # 0x4000
	.quad	8192                            # 0x2000
	.quad	65536                           # 0x10000
	.quad	2305843009213693952             # 0x2000000000000000
.LCPI0_79:
	.quad	8                               # 0x8
	.quad	36028797018963968               # 0x80000000000000
	.quad	72057594037927936               # 0x100000000000000
	.quad	16                              # 0x10
.LCPI0_80:
	.quad	-9222809086901354496            # 0x8002000000000000
	.quad	1125899906842624                # 0x4000000000000
	.quad	2251799813685248                # 0x8000000000000
	.quad	4503599627370496                # 0x10000000000000
.LCPI0_102:
	.long	0                               # 0x0
	.long	0                               # 0x0
	.long	1                               # 0x1
	.long	2                               # 0x2
	.long	1                               # 0x1
	.long	3                               # 0x3
	.long	1                               # 0x1
	.long	3                               # 0x3
.LCPI0_105:
	.long	0                               # 0x0
	.long	1                               # 0x1
	.long	2                               # 0x2
	.long	3                               # 0x3
	.long	4                               # 0x4
	.long	5                               # 0x5
	.long	6                               # 0x6
	.long	7                               # 0x7
	.section	.rodata.cst4,"aM",@progbits,4
	.p2align	2
.LCPI0_5:
	.long	1                               # 0x1
.LCPI0_6:
	.long	4294967288                      # 0xfffffff8
.LCPI0_7:
	.long	8                               # 0x8
.LCPI0_81:
	.long	0xbabd3069                      # float -0.0014433983
.LCPI0_82:
	.long	0xbf317218                      # float -0.693147182
.LCPI0_83:
	.long	0xba8322ca                      # float -0.00100048748
.LCPI0_84:
	.long	0xb9a797f3                      # float -3.19659332E-4
.LCPI0_85:
	.long	0xbc0b192a                      # float -0.00848988629
.LCPI0_86:
	.long	0xbe2aae1f                      # float -0.166679844
.LCPI0_87:
	.long	0xbf800000                      # float -1
.LCPI0_88:
	.long	0xba9c2e66                      # float -0.00119156833
.LCPI0_89:
	.long	0xbd2a66bc                      # float -0.0416018814
.LCPI0_90:
	.long	0xbeffffde                      # float -0.499998987
.LCPI0_91:
	.long	0x3f800000                      # float 1
.LCPI0_92:
	.long	0x80000000                      # float -0
.LCPI0_93:
	.long	0xbe1ba6b6                      # float -0.152003139
.LCPI0_94:
	.long	0xbdd7c745                      # float -0.105360545
.LCPI0_95:
	.long	0x3f666666                      # float 0.899999976
.LCPI0_96:
	.long	0x3dcccccd                      # float 0.100000001
.LCPI0_97:
	.long	0x3f7fbe77                      # float 0.999000012
.LCPI0_98:
	.long	0x3a83126f                      # float 0.00100000005
.LCPI0_99:
	.long	0xb727c5ac                      # float -9.99999974E-6
.LCPI0_100:
	.long	0x2edbe6ff                      # float 1.00000001E-10
.LCPI0_101:
	.long	0x3727c5ac                      # float 9.99999974E-6
.LCPI0_103:
	.long	0x45800000                      # float 4096
.LCPI0_104:
	.long	0x40000000                      # float 2
.LCPI0_106:
	.long	16                              # 0x10
.LCPI0_107:
	.long	24                              # 0x18
.LCPI0_108:
	.long	32                              # 0x20
	.section	.text.train_cost_model,"ax",@progbits
	.globl	train_cost_model
	.p2align	4, 0x90
	.type	train_cost_model,@function
train_cost_model:                       # @train_cost_model
	.cfi_startproc
# %bb.0:                                # %entry
	pushq	%rbp
	.cfi_def_cfa_offset 16
	.cfi_offset %rbp, -16
	movq	%rsp, %rbp
	.cfi_def_cfa_register %rbp
	pushq	%r15
	pushq	%r14
	pushq	%r13
	pushq	%r12
	pushq	%rbx
	andq	$-32, %rsp
	subq	$16320, %rsp                    # imm = 0x3FC0
	.cfi_offset %rbx, -56
	.cfi_offset %r12, -48
	.cfi_offset %r13, -40
	.cfi_offset %r14, -32
	.cfi_offset %r15, -24
	vmovss	%xmm0, 1952(%rsp)               # 4-byte Spill
	movl	%edx, 1948(%rsp)                # 4-byte Spill
	movl	%esi, %r15d
                                        # kill: def $edi killed $edi def $rdi
	movq	%rdi, 40(%rsp)                  # 8-byte Spill
	xorl	%eax, %eax
	cmpq	$0, 96(%rbp)
	sete	%al
	xorl	%edx, %edx
	cmpq	$0, 152(%rbp)
	sete	%dl
	shlq	$7, %rdx
	xorl	%edi, %edi
	cmpq	$0, 144(%rbp)
	sete	%dil
	shlq	$12, %rdi
	xorl	%esi, %esi
	cmpq	$0, 160(%rbp)
	sete	%sil
	orq	%rdx, %rdi
	shlq	$18, %rsi
	orq	%rsi, %rdi
	movq	16(%rbp), %r12
	vmovq	%r12, %xmm0
	vmovq	%r9, %xmm1
	vpunpcklqdq	%xmm0, %xmm1, %xmm0     # xmm0 = xmm1[0],xmm0[0]
	movq	%r8, 320(%rsp)                  # 8-byte Spill
	vmovq	%r8, %xmm1
	movq	%rcx, 440(%rsp)                 # 8-byte Spill
	vmovq	%rcx, %xmm2
	vpunpcklqdq	%xmm1, %xmm2, %xmm1     # xmm1 = xmm2[0],xmm1[0]
	vinserti128	$1, %xmm0, %ymm1, %ymm0
	vmovdqu	72(%rbp), %xmm1
	vmovq	104(%rbp), %xmm2                # xmm2 = mem[0],zero
	vmovq	88(%rbp), %xmm3                 # xmm3 = mem[0],zero
	vpunpcklqdq	%xmm2, %xmm3, %xmm2     # xmm2 = xmm3[0],xmm2[0]
	vinserti128	$1, %xmm2, %ymm1, %ymm1
	vpxor	%xmm2, %xmm2, %xmm2
	vpcmpeqq	%ymm2, %ymm1, %ymm1
	vpcmpeqq	%ymm2, %ymm0, %ymm0
	vpcmpeqq	24(%rbp), %ymm2, %ymm3
	vmovapd	.LCPI0_0(%rip), %xmm4           # xmm4 = [9223372036854775808,0]
	vblendvpd	%ymm0, .LCPI0_1(%rip), %ymm4, %ymm0
	vpcmpeqq	112(%rbp), %ymm2, %ymm2
	vpand	.LCPI0_2(%rip), %ymm1, %ymm1
	vpand	.LCPI0_3(%rip), %ymm2, %ymm2
	vpand	.LCPI0_4(%rip), %ymm3, %ymm3
	orq	%rax, %rdi
	vpor	%ymm2, %ymm3, %ymm2
	vorpd	%ymm2, %ymm0, %ymm0
	vpor	%ymm0, %ymm1, %ymm0
	vextracti128	$1, %ymm0, %xmm1
	vpor	%xmm1, %xmm0, %xmm0
	vpshufd	$78, %xmm0, %xmm1               # xmm1 = xmm0[2,3,0,1]
	vpor	%xmm1, %xmm0, %xmm0
	vmovq	%xmm0, %rax
	orq	%rax, %rdi
	xorl	%eax, %eax
	tzcntq	%rdi, %rax
	cmpl	$19, %eax
	jbe	.LBB0_319
# %bb.1:                                # %no_errors_bb
	movq	%r9, %r13
	movq	48(%rbp), %rbx
	movq	32(%rbp), %r14
	movq	16(%rbx), %rax
	movq	%rax, 704(%rsp)                 # 8-byte Spill
	leaq	32(%rbx), %rsi
	leaq	20(%rsp), %rdi
	movl	$4, %edx
	vzeroupper
	callq	memcpy@PLT
	movl	20(%rsp), %eax
	movl	%eax, 1800(%rsp)                # 4-byte Spill
	movq	24(%rbx), %rax
	movq	%rax, 2208(%rsp)                # 8-byte Spill
	movl	36(%rbx), %eax
	movl	%eax, 788(%rsp)                 # 4-byte Spill
	movq	40(%rbx), %rax
	movl	(%rax), %ecx
	movq	%rcx, 408(%rsp)                 # 8-byte Spill
	movl	4(%rax), %ecx
	movq	%rcx, 832(%rsp)                 # 8-byte Spill
	movl	8(%rax), %eax
	movl	%eax, 1520(%rsp)                # 4-byte Spill
	movq	160(%rbp), %rbx
	movq	16(%rbx), %rax
	movq	%rax, 2072(%rsp)                # 8-byte Spill
	leaq	32(%rbx), %rsi
	leaq	20(%rsp), %rdi
	movl	$4, %edx
	callq	memcpy@PLT
	movl	20(%rsp), %eax
	movl	%eax, 1792(%rsp)                # 4-byte Spill
	movq	24(%rbx), %rax
	movq	%rax, 2200(%rsp)                # 8-byte Spill
	movl	36(%rbx), %eax
	movl	%eax, 1784(%rsp)                # 4-byte Spill
	movq	40(%rbx), %rax
	movl	(%rax), %ecx
	movq	%rcx, 1816(%rsp)                # 8-byte Spill
	movl	4(%rax), %ecx
	movq	%rcx, 1320(%rsp)                # 8-byte Spill
	movl	8(%rax), %eax
	movl	%eax, 1512(%rsp)                # 4-byte Spill
	movq	40(%rbp), %rbx
	movq	16(%rbx), %rax
	movq	%rax, 560(%rsp)                 # 8-byte Spill
	leaq	32(%rbx), %rsi
	leaq	20(%rsp), %rdi
	movl	$4, %edx
	callq	memcpy@PLT
	movl	20(%rsp), %eax
	movl	%eax, 1776(%rsp)                # 4-byte Spill
	movq	24(%rbx), %rax
	movq	%rax, 2192(%rsp)                # 8-byte Spill
	movl	36(%rbx), %eax
	movl	%eax, 1040(%rsp)                # 4-byte Spill
	movq	40(%rbx), %rax
	movl	(%rax), %ecx
	movq	%rcx, 1272(%rsp)                # 8-byte Spill
	movl	4(%rax), %ecx
	movq	%rcx, 1232(%rsp)                # 8-byte Spill
	movl	8(%rax), %ecx
	movl	%ecx, 1504(%rsp)                # 4-byte Spill
	movl	16(%rax), %ecx
	movq	%rcx, 1264(%rsp)                # 8-byte Spill
	movl	20(%rax), %ecx
	movq	%rcx, 1216(%rsp)                # 8-byte Spill
	movl	24(%rax), %eax
	movl	%eax, 432(%rsp)                 # 4-byte Spill
	movq	16(%r12), %rax
	movq	%rax, 1432(%rsp)                # 8-byte Spill
	leaq	32(%r12), %rsi
	leaq	20(%rsp), %rdi
	movl	$4, %edx
	callq	memcpy@PLT
	movl	20(%rsp), %eax
	movl	%eax, 1768(%rsp)                # 4-byte Spill
	movq	24(%r12), %rax
	movq	%rax, 96(%rsp)                  # 8-byte Spill
	movl	36(%r12), %eax
	movl	%eax, 1760(%rsp)                # 4-byte Spill
	movq	40(%r12), %rax
	movl	(%rax), %ecx
	movq	%rcx, 1200(%rsp)                # 8-byte Spill
	movl	4(%rax), %ecx
	movq	%rcx, 1184(%rsp)                # 8-byte Spill
	movl	8(%rax), %eax
	movl	%eax, 1500(%rsp)                # 4-byte Spill
	movq	16(%r13), %rax
	movq	%rax, 552(%rsp)                 # 8-byte Spill
	leaq	32(%r13), %rsi
	leaq	20(%rsp), %rdi
	movl	$4, %edx
	callq	memcpy@PLT
	movl	20(%rsp), %eax
	movl	%eax, 1752(%rsp)                # 4-byte Spill
	movq	24(%r13), %rax
	movq	%rax, 576(%rsp)                 # 8-byte Spill
	movl	36(%r13), %eax
	movl	%eax, 1744(%rsp)                # 4-byte Spill
	movq	%r13, 648(%rsp)                 # 8-byte Spill
	movq	40(%r13), %rax
	movl	(%rax), %ecx
	movq	%rcx, 1168(%rsp)                # 8-byte Spill
	movl	4(%rax), %ecx
	movq	%rcx, 288(%rsp)                 # 8-byte Spill
	movl	8(%rax), %ecx
	movl	%ecx, 1492(%rsp)                # 4-byte Spill
	movl	16(%rax), %ecx
	movq	%rcx, 216(%rsp)                 # 8-byte Spill
	movl	20(%rax), %ecx
	movq	%rcx, 488(%rsp)                 # 8-byte Spill
	movl	24(%rax), %ecx
	movl	%ecx, 512(%rsp)                 # 4-byte Spill
	movl	32(%rax), %ecx
	movq	%rcx, 144(%rsp)                 # 8-byte Spill
	movl	36(%rax), %ecx
	movq	%rcx, 480(%rsp)                 # 8-byte Spill
	movl	40(%rax), %eax
	movl	%eax, 416(%rsp)                 # 4-byte Spill
	movq	16(%r14), %rax
	movq	%rax, 1456(%rsp)                # 8-byte Spill
	leaq	32(%r14), %rsi
	leaq	20(%rsp), %rdi
	movl	$4, %edx
	callq	memcpy@PLT
	movl	20(%rsp), %eax
	movl	%eax, 1736(%rsp)                # 4-byte Spill
	movq	24(%r14), %rax
	movq	%rax, 128(%rsp)                 # 8-byte Spill
	movl	36(%r14), %eax
	movl	%eax, 1728(%rsp)                # 4-byte Spill
	movq	40(%r14), %rax
	movl	(%rax), %ecx
	movq	%rcx, 664(%rsp)                 # 8-byte Spill
	movl	4(%rax), %ecx
	movq	%rcx, 872(%rsp)                 # 8-byte Spill
	movl	8(%rax), %eax
	movl	%eax, 1552(%rsp)                # 4-byte Spill
	movq	24(%rbp), %rbx
	movq	16(%rbx), %rax
	movq	%rax, 1448(%rsp)                # 8-byte Spill
	leaq	32(%rbx), %rsi
	leaq	20(%rsp), %rdi
	movl	$4, %edx
	callq	memcpy@PLT
	movl	20(%rsp), %eax
	movl	%eax, 1720(%rsp)                # 4-byte Spill
	movq	24(%rbx), %rax
	movq	%rax, 8(%rsp)                   # 8-byte Spill
	movl	36(%rbx), %eax
	movl	%eax, 1712(%rsp)                # 4-byte Spill
	movq	40(%rbx), %rax
	movl	(%rax), %ecx
	movq	%rcx, 864(%rsp)                 # 8-byte Spill
	movl	4(%rax), %ecx
	movq	%rcx, 848(%rsp)                 # 8-byte Spill
	movl	8(%rax), %ecx
	movl	%ecx, 1548(%rsp)                # 4-byte Spill
	movl	16(%rax), %ecx
	movq	%rcx, 856(%rsp)                 # 8-byte Spill
	movl	20(%rax), %ecx
	movq	%rcx, 840(%rsp)                 # 8-byte Spill
	movl	24(%rax), %eax
	movl	%eax, 1440(%rsp)                # 4-byte Spill
	movq	144(%rbp), %rbx
	movq	16(%rbx), %rax
	movq	%rax, 992(%rsp)                 # 8-byte Spill
	leaq	32(%rbx), %rsi
	leaq	20(%rsp), %rdi
	movl	$4, %edx
	callq	memcpy@PLT
	movl	20(%rsp), %eax
	movl	%eax, 1704(%rsp)                # 4-byte Spill
	movq	24(%rbx), %rax
	movq	%rax, 896(%rsp)                 # 8-byte Spill
	movl	36(%rbx), %eax
	movl	%eax, 1696(%rsp)                # 4-byte Spill
	movq	40(%rbx), %rax
	movl	(%rax), %ecx
	movq	%rcx, 656(%rsp)                 # 8-byte Spill
	movl	4(%rax), %ecx
	movq	%rcx, 424(%rsp)                 # 8-byte Spill
	movl	8(%rax), %eax
	movl	%eax, 1544(%rsp)                # 4-byte Spill
	movq	136(%rbp), %rcx
	movq	16(%rcx), %rax
	movq	%rax, 1304(%rsp)                # 8-byte Spill
	leaq	32(%rcx), %rsi
	movq	%rcx, %rbx
	leaq	20(%rsp), %rdi
	movl	$4, %edx
	callq	memcpy@PLT
	movl	20(%rsp), %eax
	movl	%eax, 1688(%rsp)                # 4-byte Spill
	movq	24(%rbx), %rax
	movq	%rax, 64(%rsp)                  # 8-byte Spill
	movl	36(%rbx), %eax
	movl	%eax, 1680(%rsp)                # 4-byte Spill
	movq	440(%rsp), %rbx                 # 8-byte Reload
	movq	16(%rbx), %rax
	movq	%rax, 1408(%rsp)                # 8-byte Spill
	leaq	32(%rbx), %rsi
	leaq	20(%rsp), %rdi
	movl	$4, %edx
	callq	memcpy@PLT
	movl	20(%rsp), %eax
	movl	%eax, 1672(%rsp)                # 4-byte Spill
	movq	24(%rbx), %rax
	movq	%rax, 56(%rsp)                  # 8-byte Spill
	movl	36(%rbx), %eax
	movl	%eax, 1664(%rsp)                # 4-byte Spill
	movq	40(%rbx), %rax
	movl	(%rax), %ecx
	movq	%rcx, 1328(%rsp)                # 8-byte Spill
	movl	4(%rax), %ecx
	movq	%rcx, 152(%rsp)                 # 8-byte Spill
	movl	8(%rax), %ecx
	movl	%ecx, 1540(%rsp)                # 4-byte Spill
	movl	16(%rax), %ecx
	movq	%rcx, 504(%rsp)                 # 8-byte Spill
	movl	20(%rax), %ecx
	movq	%rcx, 968(%rsp)                 # 8-byte Spill
	movl	24(%rax), %ecx
	movq	%rcx, 1400(%rsp)                # 8-byte Spill
	movl	32(%rax), %ecx
	movq	%rcx, 544(%rsp)                 # 8-byte Spill
	movl	36(%rax), %ecx
	movq	%rcx, 976(%rsp)                 # 8-byte Spill
	movl	40(%rax), %eax
	movl	%eax, 1392(%rsp)                # 4-byte Spill
	movq	128(%rbp), %rbx
	movq	16(%rbx), %rax
	movq	%rax, 1808(%rsp)                # 8-byte Spill
	leaq	32(%rbx), %rsi
	leaq	20(%rsp), %rdi
	movl	$4, %edx
	callq	memcpy@PLT
	movl	20(%rsp), %eax
	movl	%eax, 1656(%rsp)                # 4-byte Spill
	movq	24(%rbx), %rax
	movq	%rax, 200(%rsp)                 # 8-byte Spill
	movl	36(%rbx), %eax
	movl	%eax, 1648(%rsp)                # 4-byte Spill
	movq	40(%rbx), %rax
	movl	(%rax), %r14d
	movl	4(%rax), %r12d
	movl	8(%rax), %eax
	movl	%eax, 1536(%rsp)                # 4-byte Spill
	movq	320(%rsp), %rbx                 # 8-byte Reload
	movq	16(%rbx), %rax
	movq	%rax, 80(%rsp)                  # 8-byte Spill
	leaq	32(%rbx), %rsi
	leaq	20(%rsp), %rdi
	movl	$4, %edx
	callq	memcpy@PLT
	movl	20(%rsp), %eax
	movl	%eax, 1640(%rsp)                # 4-byte Spill
	movq	24(%rbx), %rax
	movq	%rax, 496(%rsp)                 # 8-byte Spill
	movl	36(%rbx), %eax
	movl	%eax, 784(%rsp)                 # 4-byte Spill
	movq	40(%rbx), %rax
	movl	(%rax), %ecx
	movq	%rcx, 272(%rsp)                 # 8-byte Spill
	movl	4(%rax), %ecx
	movq	%rcx, 88(%rsp)                  # 8-byte Spill
	movl	8(%rax), %ecx
	movl	%ecx, 1532(%rsp)                # 4-byte Spill
	movl	16(%rax), %ecx
	movq	%rcx, 48(%rsp)                  # 8-byte Spill
	movl	20(%rax), %ecx
	movq	%rcx, 952(%rsp)                 # 8-byte Spill
	movl	24(%rax), %ecx
	movq	%rcx, 1344(%rsp)                # 8-byte Spill
	movl	32(%rax), %ecx
	movq	%rcx, 208(%rsp)                 # 8-byte Spill
	movl	36(%rax), %ecx
	movq	%rcx, 960(%rsp)                 # 8-byte Spill
	movl	40(%rax), %eax
	movl	%eax, 36(%rsp)                  # 4-byte Spill
	movq	152(%rbp), %rbx
	movq	16(%rbx), %rax
	movq	%rax, 1472(%rsp)                # 8-byte Spill
	leaq	32(%rbx), %rsi
	leaq	20(%rsp), %rdi
	movl	$4, %edx
	callq	memcpy@PLT
	movl	20(%rsp), %eax
	movl	%eax, 780(%rsp)                 # 4-byte Spill
	movq	24(%rbx), %rax
	movq	%rax, 536(%rsp)                 # 8-byte Spill
	movl	36(%rbx), %eax
	movl	%eax, 776(%rsp)                 # 4-byte Spill
	movq	40(%rbx), %rax
	movl	(%rax), %r13d
	movl	4(%rax), %ecx
	movq	%rcx, 1312(%rsp)                # 8-byte Spill
	movl	8(%rax), %eax
	movl	%eax, 1528(%rsp)                # 4-byte Spill
	movq	72(%rbp), %rbx
	movq	16(%rbx), %rax
	movq	%rax, 712(%rsp)                 # 8-byte Spill
	leaq	32(%rbx), %rsi
	leaq	20(%rsp), %rdi
	movl	$4, %edx
	callq	memcpy@PLT
	movl	20(%rsp), %eax
	movl	%eax, 772(%rsp)                 # 4-byte Spill
	movq	24(%rbx), %rax
	movq	%rax, 888(%rsp)                 # 8-byte Spill
	movl	36(%rbx), %eax
	movl	%eax, 768(%rsp)                 # 4-byte Spill
	movq	40(%rbx), %rax
	movl	(%rax), %ecx
	movq	%rcx, 640(%rsp)                 # 8-byte Spill
	movl	4(%rax), %ecx
	movq	%rcx, 72(%rsp)                  # 8-byte Spill
	movl	8(%rax), %eax
	movl	%eax, 1524(%rsp)                # 4-byte Spill
	movq	120(%rbp), %rbx
	movq	16(%rbx), %rax
	movq	%rax, 2064(%rsp)                # 8-byte Spill
	leaq	32(%rbx), %rsi
	leaq	20(%rsp), %rdi
	movl	$4, %edx
	callq	memcpy@PLT
	movl	20(%rsp), %eax
	movl	%eax, 764(%rsp)                 # 4-byte Spill
	movq	24(%rbx), %rax
	movq	%rax, 624(%rsp)                 # 8-byte Spill
	movl	36(%rbx), %eax
	movl	%eax, 760(%rsp)                 # 4-byte Spill
	movq	40(%rbx), %rax
	movl	(%rax), %ecx
	movq	%rcx, 824(%rsp)                 # 8-byte Spill
	movl	4(%rax), %ecx
	movq	%rcx, 1296(%rsp)                # 8-byte Spill
	movl	8(%rax), %ecx
	movl	%ecx, 1516(%rsp)                # 4-byte Spill
	movl	16(%rax), %ecx
	movq	%rcx, 528(%rsp)                 # 8-byte Spill
	movl	20(%rax), %ecx
	movq	%rcx, 1288(%rsp)                # 8-byte Spill
	movl	24(%rax), %eax
	movq	%rax, 2056(%rsp)                # 8-byte Spill
	movq	112(%rbp), %rbx
	movq	16(%rbx), %rax
	movq	%rax, 2048(%rsp)                # 8-byte Spill
	leaq	32(%rbx), %rsi
	leaq	20(%rsp), %rdi
	movl	$4, %edx
	callq	memcpy@PLT
	movl	20(%rsp), %eax
	movl	%eax, 756(%rsp)                 # 4-byte Spill
	movq	24(%rbx), %rax
	movq	%rax, 880(%rsp)                 # 8-byte Spill
	movl	36(%rbx), %eax
	movl	%eax, 752(%rsp)                 # 4-byte Spill
	movq	40(%rbx), %rax
	movl	(%rax), %ecx
	movq	%rcx, 1280(%rsp)                # 8-byte Spill
	movl	4(%rax), %ecx
	movq	%rcx, 1248(%rsp)                # 8-byte Spill
	movl	8(%rax), %ecx
	movl	%ecx, 1508(%rsp)                # 4-byte Spill
	movl	16(%rax), %ecx
	movq	%rcx, 1256(%rsp)                # 8-byte Spill
	movl	20(%rax), %ecx
	movq	%rcx, 1224(%rsp)                # 8-byte Spill
	movl	24(%rax), %ecx
	movl	%ecx, 1560(%rsp)                # 4-byte Spill
	movl	32(%rax), %ecx
	movq	%rcx, 1240(%rsp)                # 8-byte Spill
	movl	36(%rax), %ecx
	movq	%rcx, 1208(%rsp)                # 8-byte Spill
	movl	40(%rax), %eax
	movq	%rax, 2040(%rsp)                # 8-byte Spill
	movq	88(%rbp), %rbx
	movq	16(%rbx), %rax
	movq	%rax, 2008(%rsp)                # 8-byte Spill
	leaq	32(%rbx), %rsi
	leaq	20(%rsp), %rdi
	movl	$4, %edx
	callq	memcpy@PLT
	movl	20(%rsp), %eax
	movl	%eax, 748(%rsp)                 # 4-byte Spill
	movq	24(%rbx), %rax
	movq	%rax, 696(%rsp)                 # 8-byte Spill
	movl	36(%rbx), %eax
	movl	%eax, 744(%rsp)                 # 4-byte Spill
	movq	40(%rbx), %rax
	movl	(%rax), %ecx
	movq	%rcx, 1192(%rsp)                # 8-byte Spill
	movl	4(%rax), %ecx
	movq	%rcx, 1176(%rsp)                # 8-byte Spill
	movl	8(%rax), %ecx
	movl	%ecx, 1496(%rsp)                # 4-byte Spill
	vmovsd	16(%rax), %xmm0                 # xmm0 = mem[0],zero
	vmovaps	%xmm0, 2080(%rsp)               # 16-byte Spill
	movslq	24(%rax), %rax
	movq	%rax, 2000(%rsp)                # 8-byte Spill
	movq	80(%rbp), %rcx
	movq	16(%rcx), %rax
	movq	%rax, 1416(%rsp)                # 8-byte Spill
	leaq	32(%rcx), %rsi
	movq	%rcx, %rbx
	leaq	20(%rsp), %rdi
	movl	$4, %edx
	callq	memcpy@PLT
	movl	20(%rsp), %eax
	movl	%eax, 740(%rsp)                 # 4-byte Spill
	movq	40(%rbx), %rax
	movl	(%rax), %ecx
	movq	%rcx, 1160(%rsp)                # 8-byte Spill
	movl	4(%rax), %ecx
	movq	%rcx, 1144(%rsp)                # 8-byte Spill
	movl	8(%rax), %ecx
	movl	%ecx, 1488(%rsp)                # 4-byte Spill
	movl	16(%rax), %ecx
	movq	%rcx, 1152(%rsp)                # 8-byte Spill
	movl	20(%rax), %ecx
	movq	%rcx, 1128(%rsp)                # 8-byte Spill
	movl	24(%rax), %ecx
	movl	%ecx, 520(%rsp)                 # 4-byte Spill
	movl	32(%rax), %ecx
	movq	%rcx, 1136(%rsp)                # 8-byte Spill
	movl	36(%rax), %ecx
	movq	%rcx, 1112(%rsp)                # 8-byte Spill
	movl	40(%rax), %ecx
	movq	%rcx, 1992(%rsp)                # 8-byte Spill
	movl	48(%rax), %ecx
	movq	%rcx, 1120(%rsp)                # 8-byte Spill
	movl	52(%rax), %ecx
	movq	%rcx, 1104(%rsp)                # 8-byte Spill
	movl	56(%rax), %eax
	movq	%rax, 1336(%rsp)                # 8-byte Spill
	movq	24(%rbx), %rax
	movq	%rax, 2184(%rsp)                # 8-byte Spill
	movl	36(%rbx), %eax
	movl	%eax, 736(%rsp)                 # 4-byte Spill
	movq	104(%rbp), %rbx
	movq	16(%rbx), %rax
	movq	%rax, 2032(%rsp)                # 8-byte Spill
	leaq	32(%rbx), %rsi
	leaq	20(%rsp), %rdi
	movl	$4, %edx
	callq	memcpy@PLT
	movl	20(%rsp), %eax
	movl	%eax, 732(%rsp)                 # 4-byte Spill
	movq	24(%rbx), %rax
	movq	%rax, 688(%rsp)                 # 8-byte Spill
	movl	36(%rbx), %eax
	movl	%eax, 728(%rsp)                 # 4-byte Spill
	movq	40(%rbx), %rax
	movl	(%rax), %ecx
	movl	%ecx, 1028(%rsp)                # 4-byte Spill
	movl	4(%rax), %ecx
	movq	%rcx, 1096(%rsp)                # 8-byte Spill
	movl	8(%rax), %ecx
	movl	%ecx, 1484(%rsp)                # 4-byte Spill
	movl	16(%rax), %ecx
	movl	%ecx, 1024(%rsp)                # 4-byte Spill
	movl	20(%rax), %ecx
	movq	%rcx, 1088(%rsp)                # 8-byte Spill
	movl	24(%rax), %eax
	movq	%rax, 2024(%rsp)                # 8-byte Spill
	movq	96(%rbp), %rcx
	movq	16(%rcx), %rax
	movq	%rax, 2016(%rsp)                # 8-byte Spill
	leaq	32(%rcx), %rsi
	leaq	20(%rsp), %rdi
	movl	$4, %edx
	callq	memcpy@PLT
	leal	(%r12,%r14), %ecx
	cmpl	%r15d, %ecx
	movl	%r15d, %eax
	movl	%ecx, 1940(%rsp)                # 4-byte Spill
	cmovgel	%ecx, %eax
	movq	656(%rsp), %rdi                 # 8-byte Reload
	movq	424(%rsp), %rcx                 # 8-byte Reload
	leal	(%rcx,%rdi), %r8d
	cmpl	%r15d, %r8d
	movl	%r15d, %edx
	cmovgel	%r8d, %edx
	movq	1312(%rsp), %rcx                # 8-byte Reload
	leal	(%rcx,%r13), %r9d
	cmpl	%r9d, %edx
	cmovll	%r9d, %edx
	movq	1816(%rsp), %rcx                # 8-byte Reload
	movq	1320(%rsp), %rsi                # 8-byte Reload
	leal	(%rsi,%rcx), %r10d
	cmpl	%r10d, %edx
	cmovll	%r10d, %edx
	cmpl	%eax, %edx
	cmovll	%eax, %edx
	movq	%rdi, %rsi
	cmpl	%esi, %r13d
	movl	%r13d, %r11d
	cmovgl	%esi, %r11d
	cmpl	%r11d, %ecx
	cmovlel	%ecx, %r11d
	cmpl	%r11d, %r14d
	cmovlel	%r14d, %r11d
	cmpl	%r15d, %edx
	movl	%edx, 1944(%rsp)                # 4-byte Spill
	cmovll	%r15d, %edx
	movq	288(%rsp), %rsi                 # 8-byte Reload
	cmpl	$7, %esi
	movl	$8, %ecx
	cmovgl	%esi, %ecx
	movq	%rcx, 1384(%rsp)                # 8-byte Spill
	movl	%esi, %ecx
	sarl	$31, %ecx
	andl	%esi, %ecx
	movl	%ecx, 572(%rsp)                 # 4-byte Spill
	cmpl	$9, %r12d
	movl	$8, %esi
	cmovll	%r12d, %esi
	leal	-1(%r12), %edi
	andl	$-8, %edi
	addl	%esi, %edi
	cmpl	%edi, %r12d
	movq	%r12, 632(%rsp)                 # 8-byte Spill
	cmovlel	%r12d, %edi
	movq	%rdi, 1856(%rsp)                # 8-byte Spill
	vmovd	%edx, %xmm0
	vpinsrd	$1, %eax, %xmm0, %xmm0
	vpbroadcastd	.LCPI0_5(%rip), %xmm1   # xmm1 = [1,1,1,1]
	vpmaxsd	%xmm1, %xmm0, %xmm13
	vmovd	%r11d, %xmm0
	movq	%r14, 672(%rsp)                 # 8-byte Spill
	vpinsrd	$1, %r14d, %xmm0, %xmm0
	vpxor	%xmm1, %xmm1, %xmm1
	vpminsd	%xmm1, %xmm0, %xmm15
	vpsubd	%xmm15, %xmm13, %xmm14
	vpcmpeqd	%xmm0, %xmm0, %xmm0
	vpaddd	%xmm0, %xmm14, %xmm3
	vpbroadcastd	.LCPI0_6(%rip), %xmm1   # xmm1 = [4294967288,4294967288,4294967288,4294967288]
	vpand	%xmm1, %xmm3, %xmm1
	vpaddd	%xmm1, %xmm15, %xmm1
	vpaddd	%xmm0, %xmm13, %xmm2
	vpminsd	%xmm1, %xmm2, %xmm0
	vpbroadcastd	.LCPI0_7(%rip), %xmm1   # xmm1 = [8,8,8,8]
	vpminsd	%xmm1, %xmm14, %xmm1
	vpaddd	%xmm1, %xmm0, %xmm0
	vpminsd	%xmm13, %xmm0, %xmm0
	vmovd	%xmm0, %eax
	vpextrd	$1, %xmm0, %edx
	cmpl	%edx, %eax
	movl	%edx, 1616(%rsp)                # 4-byte Spill
	movl	%eax, 24(%rsp)                  # 4-byte Spill
	cmovgel	%eax, %edx
	cmpl	$9, %r15d
	movl	$8, %edi
	cmovll	%r15d, %edi
	movl	$-8, %eax
	subl	%r15d, %eax
	cmpl	%r15d, %eax
	leal	-1(%r15), %ebx
	cmovll	%ebx, %eax
	movl	%eax, %esi
	sarl	$3, %esi
	sarl	$31, %eax
	andnl	%esi, %eax, %eax
	movl	%ebx, %esi
	sarl	$3, %esi
	cmpl	%eax, %esi
	cmovgl	%eax, %esi
	movq	%rdi, 448(%rsp)                 # 8-byte Spill
	leal	(%rdi,%rsi,8), %esi
	cmpl	%r15d, %esi
	cmovgl	%r15d, %esi
	cmpl	%esi, %edx
	movl	%esi, 224(%rsp)                 # 4-byte Spill
	cmovll	%esi, %edx
	cmpl	%r8d, %edx
	movl	%r8d, 984(%rsp)                 # 4-byte Spill
	cmovll	%r8d, %edx
	cmpl	%r9d, %edx
	movl	%r9d, 1464(%rsp)                # 4-byte Spill
	cmovll	%r9d, %edx
	cmpl	%r10d, %edx
	movl	%r10d, 1564(%rsp)               # 4-byte Spill
	cmovll	%r10d, %edx
	testl	%edx, %edx
	movl	$1, %r9d
	cmovgl	%edx, %r9d
	movq	656(%rsp), %rcx                 # 8-byte Reload
	cmpl	%r11d, %ecx
	cmovlel	%ecx, %r11d
	cmpl	%r11d, %r13d
	movq	%r13, 1984(%rsp)                # 8-byte Spill
	cmovlel	%r13d, %r11d
	movq	1816(%rsp), %rcx                # 8-byte Reload
	cmpl	%r11d, %ecx
	cmovlel	%ecx, %r11d
	leal	8(,%rax,8), %edx
	cmpl	%r15d, %edx
	cmovgl	%r15d, %edx
	leal	-1(%rdx), %esi
	sarl	$3, %esi
	cmpl	%eax, %esi
	cmovlel	%esi, %eax
	leal	8(,%rax,8), %ecx
	cmpl	%r15d, %ecx
	cmovgl	%r15d, %ecx
	cmpl	$9, %edx
	movl	$8, %edi
	cmovgel	%edi, %edx
	addl	%esi, %eax
	leal	(%rdx,%rax,8), %eax
	cmpl	%ecx, %eax
	cmovlel	%eax, %ecx
	leal	-1(%rcx), %eax
	movl	64(%rbp), %edx
	cmpl	%edx, %eax
	cmovll	%edx, %eax
	cmpl	%eax, %ebx
	movl	%ebx, 1824(%rsp)                # 4-byte Spill
	cmovlel	%ebx, %eax
	movl	%eax, %edx
	sarl	$31, %edx
	andnl	%eax, %edx, %eax
	cmpl	%r15d, %eax
	leal	1(%rax), %ebx
	cmovll	%r15d, %ebx
	movq	40(%rbp), %rax
	cmpq	$0, 16(%rax)
	movq	96(%rbp), %rsi
	movq	40(%rsi), %rax
	movl	(%rax), %edx
	movl	%edx, 1020(%rsp)                # 4-byte Spill
	movl	4(%rax), %edx
	movq	%rdx, 1072(%rsp)                # 8-byte Spill
	movl	8(%rax), %r8d
	movl	16(%rax), %edx
	movl	%edx, 1016(%rsp)                # 4-byte Spill
	movl	20(%rax), %edx
	movq	%rdx, 1064(%rsp)                # 8-byte Spill
	movl	24(%rax), %edx
	movl	%edx, 1556(%rsp)                # 4-byte Spill
	movl	32(%rax), %r10d
	movl	36(%rax), %r13d
	movl	40(%rax), %r12d
	movl	20(%rsp), %eax
	movq	24(%rsi), %rdi
	movl	36(%rsi), %esi
	jne	.LBB0_4
# %bb.2:                                # %_halide_buffer_is_bounds_query.exit
	movq	288(%rsp), %rdx                 # 8-byte Reload
	testl	%edx, %edx
	sets	%r14b
	cmpl	$8, %edx
	setg	%dl
	cmpb	%r14b, %dl
	je	.LBB0_4
# %bb.3:                                # %_halide_buffer_is_bounds_query.exit
	movq	40(%rbp), %rdx
	cmpq	$0, (%rdx)
	je	.LBB0_406
.LBB0_4:                                # %"assert succeeded"
	movq	%r15, 352(%rsp)                 # 8-byte Spill
	movl	%esi, 720(%rsp)                 # 4-byte Spill
	movl	%eax, 724(%rsp)                 # 4-byte Spill
	movl	%ebx, 1032(%rsp)                # 4-byte Spill
	movl	%r9d, 1036(%rsp)                # 4-byte Spill
	movl	%r8d, 1480(%rsp)                # 4-byte Spill
	movq	%r13, 1056(%rsp)                # 8-byte Spill
	movq	%r10, 1080(%rsp)                # 8-byte Spill
	movq	%rdi, 680(%rsp)                 # 8-byte Spill
	movq	%rcx, 2216(%rsp)                # 8-byte Spill
	movq	48(%rbp), %r14
	cmpq	$0, 16(%r14)
	jne	.LBB0_7
# %bb.5:                                # %_halide_buffer_is_bounds_query.exit799
	cmpq	$0, (%r14)
	jne	.LBB0_7
# %bb.6:                                # %true_bb
	movq	40(%r14), %rax
	vpxor	%xmm0, %xmm0, %xmm0
	vmovdqu	%xmm0, (%r14)
	movq	$0, 16(%r14)
	movabsq	$4295041026, %rdx               # imm = 0x100012002
	movq	%rdx, 32(%r14)
	vmovdqa	.LCPI0_8(%rip), %xmm0           # xmm0 = [0,32,1,0]
	vmovdqu	%xmm0, (%rax)
	movq	$0, 24(%r14)
.LBB0_7:                                # %after_bb
	movq	160(%rbp), %rsi
	cmpq	$0, 16(%rsi)
	movq	120(%rbp), %r9
	movq	112(%rbp), %r10
	movq	104(%rbp), %r8
	movq	32(%rbp), %r15
	movq	648(%rsp), %r14                 # 8-byte Reload
	movq	80(%rbp), %r13
	movq	16(%rbp), %rcx
	movq	40(%rbp), %rdi
	jne	.LBB0_9
# %bb.8:                                # %_halide_buffer_is_bounds_query.exit813
	cmpq	$0, (%rsi)
	je	.LBB0_12
.LBB0_9:                                # %after_bb22
	cmpq	$0, 16(%rdi)
	movq	136(%rbp), %rbx
	jne	.LBB0_13
.LBB0_10:                               # %_halide_buffer_is_bounds_query.exit815
	cmpq	$0, (%rdi)
	jne	.LBB0_13
# %bb.11:                               # %true_bb23
	movq	40(%rdi), %rax
	vpxor	%xmm0, %xmm0, %xmm0
	vmovdqu	%xmm0, (%rdi)
	movq	$0, 16(%rdi)
	movabsq	$8590008322, %rdx               # imm = 0x200012002
	movq	%rdx, 32(%rdi)
	vmovaps	.LCPI0_8(%rip), %xmm0           # xmm0 = [0,32,1,0]
	vmovups	%xmm0, (%rax)
	movq	40(%rdi), %rax
	vmovdqa	.LCPI0_9(%rip), %xmm0           # xmm0 = [0,32,32,0]
	vmovdqu	%xmm0, 16(%rax)
	movq	$0, 24(%rdi)
	jmp	.LBB0_13
.LBB0_12:                               # %true_bb20
	movq	40(%rsi), %rax
	vpxor	%xmm0, %xmm0, %xmm0
	vmovdqu	%xmm0, (%rsi)
	movq	$0, 16(%rsi)
	movabsq	$4295041026, %rdx               # imm = 0x100012002
	movq	%rdx, 32(%rsi)
	movq	1816(%rsp), %rdx                # 8-byte Reload
	movl	%edx, (%rax)
	movq	1320(%rsp), %rdx                # 8-byte Reload
	movl	%edx, 4(%rax)
	movq	$1, 8(%rax)
	movq	$0, 24(%rsi)
	cmpq	$0, 16(%rdi)
	movq	136(%rbp), %rbx
	je	.LBB0_10
.LBB0_13:                               # %after_bb25
	cmpq	$0, 16(%rcx)
	jne	.LBB0_15
# %bb.14:                               # %_halide_buffer_is_bounds_query.exit817
	cmpq	$0, (%rcx)
	je	.LBB0_18
.LBB0_15:                               # %after_bb28
	cmpq	$0, 16(%r14)
	movq	128(%rbp), %rdi
	jne	.LBB0_19
.LBB0_16:                               # %_halide_buffer_is_bounds_query.exit819
	cmpq	$0, (%r14)
	jne	.LBB0_19
# %bb.17:                               # %true_bb29
	movq	40(%r14), %rax
	vpxor	%xmm0, %xmm0, %xmm0
	vmovdqu	%xmm0, (%r14)
	movq	$0, 16(%r14)
	movabsq	$12884975618, %rdx              # imm = 0x300012002
	movq	%rdx, 32(%r14)
	vmovaps	.LCPI0_10(%rip), %xmm0          # xmm0 = [0,8,1,0]
	vmovups	%xmm0, (%rax)
	movq	40(%r14), %rax
	vmovaps	.LCPI0_11(%rip), %xmm0          # xmm0 = [0,40,8,0]
	vmovups	%xmm0, 16(%rax)
	movq	40(%r14), %rax
	vmovdqa	.LCPI0_12(%rip), %xmm0          # xmm0 = [0,7,320,0]
	vmovdqu	%xmm0, 32(%rax)
	movq	$0, 24(%r14)
	jmp	.LBB0_19
.LBB0_18:                               # %true_bb26
	movq	40(%rcx), %rax
	vpxor	%xmm0, %xmm0, %xmm0
	vmovdqu	%xmm0, (%rcx)
	movq	$0, 16(%rcx)
	movabsq	$4295041026, %rdx               # imm = 0x100012002
	movq	%rdx, 32(%rcx)
	vmovdqa	.LCPI0_10(%rip), %xmm0          # xmm0 = [0,8,1,0]
	vmovdqu	%xmm0, (%rax)
	movq	$0, 24(%rcx)
	cmpq	$0, 16(%r14)
	movq	128(%rbp), %rdi
	je	.LBB0_16
.LBB0_19:                               # %after_bb31
	movq	%r12, 1424(%rsp)                # 8-byte Spill
	cmpq	$0, 16(%r15)
	jne	.LBB0_21
# %bb.20:                               # %_halide_buffer_is_bounds_query.exit822
	cmpq	$0, (%r15)
	je	.LBB0_24
.LBB0_21:                               # %after_bb34
	movq	24(%rbp), %rsi
	cmpq	$0, 16(%rsi)
	movq	144(%rbp), %r12
	jne	.LBB0_25
.LBB0_22:                               # %_halide_buffer_is_bounds_query.exit824
	cmpq	$0, (%rsi)
	jne	.LBB0_25
# %bb.23:                               # %true_bb35
	movq	40(%rsi), %rax
	vpxor	%xmm0, %xmm0, %xmm0
	vmovdqu	%xmm0, (%rsi)
	movq	$0, 16(%rsi)
	movabsq	$8590008322, %rdx               # imm = 0x200012002
	movq	%rdx, 32(%rsi)
	vmovaps	.LCPI0_13(%rip), %xmm0          # xmm0 = [0,24,1,0]
	vmovups	%xmm0, (%rax)
	movq	40(%rsi), %rax
	vmovdqa	.LCPI0_14(%rip), %xmm0          # xmm0 = [0,39,24,0]
	vmovdqu	%xmm0, 16(%rax)
	movq	$0, 24(%rsi)
	jmp	.LBB0_25
.LBB0_24:                               # %true_bb32
	movq	40(%r15), %rax
	vpxor	%xmm0, %xmm0, %xmm0
	vmovdqu	%xmm0, (%r15)
	movq	$0, 16(%r15)
	movabsq	$4295041026, %rdx               # imm = 0x100012002
	movq	%rdx, 32(%r15)
	vmovdqa	.LCPI0_13(%rip), %xmm0          # xmm0 = [0,24,1,0]
	vmovdqu	%xmm0, (%rax)
	movq	$0, 24(%r15)
	movq	24(%rbp), %rsi
	cmpq	$0, 16(%rsi)
	movq	144(%rbp), %r12
	je	.LBB0_22
.LBB0_25:                               # %after_bb37
	cmpq	$0, 16(%r12)
	jne	.LBB0_27
# %bb.26:                               # %_halide_buffer_is_bounds_query.exit827
	cmpq	$0, (%r12)
	je	.LBB0_30
.LBB0_27:                               # %after_bb40
	cmpq	$0, 16(%rbx)
	jne	.LBB0_31
.LBB0_28:                               # %_halide_buffer_is_bounds_query.exit829
	cmpq	$0, (%rbx)
	jne	.LBB0_31
# %bb.29:                               # %true_bb41
	vpxor	%xmm0, %xmm0, %xmm0
	vmovdqu	%xmm0, 16(%rbx)
	vmovdqu	%xmm0, (%rbx)
	movq	$73730, 32(%rbx)                # imm = 0x12002
	jmp	.LBB0_31
.LBB0_30:                               # %true_bb38
	movq	40(%r12), %rax
	vpxor	%xmm0, %xmm0, %xmm0
	vmovdqu	%xmm0, (%r12)
	movq	$0, 16(%r12)
	movabsq	$4295041026, %rdx               # imm = 0x100012002
	movq	%rdx, 32(%r12)
	movq	656(%rsp), %rdx                 # 8-byte Reload
	movl	%edx, (%rax)
	movq	424(%rsp), %rdx                 # 8-byte Reload
	movl	%edx, 4(%rax)
	movq	$1, 8(%rax)
	movq	$0, 24(%r12)
	cmpq	$0, 16(%rbx)
	je	.LBB0_28
.LBB0_31:                               # %after_bb43
	movq	440(%rsp), %r15                 # 8-byte Reload
	cmpq	$0, 16(%r15)
	jne	.LBB0_34
# %bb.32:                               # %_halide_buffer_is_bounds_query.exit830
	cmpq	$0, (%r15)
	jne	.LBB0_34
# %bb.33:                               # %true_bb44
	movq	40(%rsp), %rdx                  # 8-byte Reload
	testl	%edx, %edx
	movl	$1, %eax
	cmovgl	%edx, %eax
	movq	40(%r15), %rdx
	vpxor	%xmm0, %xmm0, %xmm0
	vmovdqu	%xmm0, (%r15)
	movq	$0, 16(%r15)
	movabsq	$12884975618, %rsi              # imm = 0x300012002
	movq	%rsi, 32(%r15)
	vmovaps	.LCPI0_15(%rip), %xmm0          # xmm0 = [0,40,1,0]
	vmovups	%xmm0, (%rdx)
	movq	40(%r15), %rdx
	vmovdqa	.LCPI0_16(%rip), %xmm0          # xmm0 = [0,7,40,0]
	vmovdqu	%xmm0, 16(%rdx)
	movq	40(%r15), %rdx
	movl	$0, 32(%rdx)
	movl	%eax, 36(%rdx)
	movq	$280, 40(%rdx)                  # imm = 0x118
	movq	$0, 24(%r15)
.LBB0_34:                               # %after_bb46
	movl	%r11d, %eax
	sarl	$31, %eax
	movl	%eax, 1568(%rsp)                # 4-byte Spill
	cmpq	$0, 16(%rdi)
	jne	.LBB0_37
# %bb.35:                               # %_halide_buffer_is_bounds_query.exit833
	cmpq	$0, (%rdi)
	jne	.LBB0_37
# %bb.36:                               # %true_bb47
	movq	40(%rdi), %rax
	vpxor	%xmm0, %xmm0, %xmm0
	vmovdqu	%xmm0, (%rdi)
	movq	$0, 16(%rdi)
	movabsq	$4295041026, %rdx               # imm = 0x100012002
	movq	%rdx, 32(%rdi)
	movq	672(%rsp), %rdx                 # 8-byte Reload
	movl	%edx, (%rax)
	movq	1856(%rsp), %rdx                # 8-byte Reload
	movl	%edx, 4(%rax)
	movq	$1, 8(%rax)
	movq	$0, 24(%rdi)
.LBB0_37:                               # %after_bb49
	andl	%r11d, 1568(%rsp)               # 4-byte Folded Spill
	movq	320(%rsp), %rbx                 # 8-byte Reload
	cmpq	$0, 16(%rbx)
	movq	72(%rbp), %r15
	jne	.LBB0_40
# %bb.38:                               # %_halide_buffer_is_bounds_query.exit835
	cmpq	$0, (%rbx)
	jne	.LBB0_40
# %bb.39:                               # %true_bb50
	movl	1036(%rsp), %eax                # 4-byte Reload
	movl	1568(%rsp), %r14d               # 4-byte Reload
	subl	%r14d, %eax
	movq	40(%rbx), %rcx
	movq	40(%rsp), %rsi                  # 8-byte Reload
	testl	%esi, %esi
	movl	$1, %edx
	cmovgl	%esi, %edx
	imull	$39, %eax, %esi
	vpxor	%xmm0, %xmm0, %xmm0
	vmovdqu	%xmm0, (%rbx)
	movq	$0, 16(%rbx)
	movabsq	$12884975618, %rdi              # imm = 0x300012002
	movq	%rdi, 32(%rbx)
	movl	%r14d, (%rcx)
	movq	648(%rsp), %r14                 # 8-byte Reload
	movl	%eax, 4(%rcx)
	movq	$1, 8(%rcx)
	movq	40(%rbx), %rcx
	movabsq	$167503724544, %rdi             # imm = 0x2700000000
	movq	%rdi, 16(%rcx)
	movq	80(%rbp), %r13
	movq	128(%rbp), %rdi
	movl	%eax, 24(%rcx)
	movl	$0, 28(%rcx)
	movq	40(%rbx), %rax
	movl	$0, 32(%rax)
	movl	%edx, 36(%rax)
	movl	%esi, 40(%rax)
	movl	$0, 44(%rax)
	movq	$0, 24(%rbx)
.LBB0_40:                               # %after_bb52
	movq	152(%rbp), %r11
	cmpq	$0, 16(%r11)
	movq	88(%rbp), %rsi
	movq	96(%rbp), %rdx
	jne	.LBB0_42
# %bb.41:                               # %_halide_buffer_is_bounds_query.exit838
	cmpq	$0, (%r11)
	je	.LBB0_45
.LBB0_42:                               # %after_bb55
	cmpq	$0, 16(%r15)
	jne	.LBB0_46
.LBB0_43:                               # %_halide_buffer_is_bounds_query.exit840
	cmpq	$0, (%r15)
	jne	.LBB0_46
# %bb.44:                               # %true_bb56
	movq	40(%r15), %rax
	vpxor	%xmm0, %xmm0, %xmm0
	vmovdqu	%xmm0, (%r15)
	movq	$0, 16(%r15)
	movabsq	$4295041026, %rcx               # imm = 0x100012002
	movq	%rcx, 32(%r15)
	movl	$0, (%rax)
	movl	1032(%rsp), %ecx                # 4-byte Reload
	movl	%ecx, 4(%rax)
	movq	$1, 8(%rax)
	movq	$0, 24(%r15)
	jmp	.LBB0_46
.LBB0_45:                               # %true_bb53
	movq	40(%r11), %rax
	vpxor	%xmm0, %xmm0, %xmm0
	vmovdqu	%xmm0, (%r11)
	movq	$0, 16(%r11)
	movabsq	$4295041026, %rcx               # imm = 0x100012002
	movq	%rcx, 32(%r11)
	movq	1984(%rsp), %rcx                # 8-byte Reload
	movl	%ecx, (%rax)
	movq	1312(%rsp), %rcx                # 8-byte Reload
	movl	%ecx, 4(%rax)
	movq	$1, 8(%rax)
	movq	$0, 24(%r11)
	cmpq	$0, 16(%r15)
	je	.LBB0_43
.LBB0_46:                               # %after_bb58
	cmpq	$0, 16(%r9)
	jne	.LBB0_48
# %bb.47:                               # %_halide_buffer_is_bounds_query.exit842
	cmpq	$0, (%r9)
	je	.LBB0_51
.LBB0_48:                               # %after_bb61
	cmpq	$0, 16(%r10)
	jne	.LBB0_52
.LBB0_49:                               # %_halide_buffer_is_bounds_query.exit845
	cmpq	$0, (%r10)
	jne	.LBB0_52
# %bb.50:                               # %true_bb62
	movq	40(%r10), %rax
	vpxor	%xmm0, %xmm0, %xmm0
	vmovdqu	%xmm0, (%r10)
	movq	$0, 16(%r10)
	movabsq	$12884975618, %rcx              # imm = 0x300012002
	movq	%rcx, 32(%r10)
	vmovaps	.LCPI0_8(%rip), %xmm0           # xmm0 = [0,32,1,0]
	vmovups	%xmm0, (%rax)
	movq	40(%r10), %rax
	vmovaps	.LCPI0_9(%rip), %xmm0           # xmm0 = [0,32,32,0]
	vmovups	%xmm0, 16(%rax)
	movq	40(%r10), %rax
	vmovdqa	.LCPI0_18(%rip), %xmm0          # xmm0 = [0,4,1024,0]
	vmovdqu	%xmm0, 32(%rax)
	movq	$0, 24(%r10)
	jmp	.LBB0_52
.LBB0_51:                               # %true_bb59
	movq	40(%r9), %rax
	vpxor	%xmm0, %xmm0, %xmm0
	vmovdqu	%xmm0, (%r9)
	movq	$0, 16(%r9)
	movabsq	$8590008322, %rcx               # imm = 0x200012002
	movq	%rcx, 32(%r9)
	vmovaps	.LCPI0_8(%rip), %xmm0           # xmm0 = [0,32,1,0]
	vmovups	%xmm0, (%rax)
	movq	40(%r9), %rax
	vmovdqa	.LCPI0_17(%rip), %xmm0          # xmm0 = [0,4,32,0]
	vmovdqu	%xmm0, 16(%rax)
	movq	$0, 24(%r9)
	cmpq	$0, 16(%r10)
	je	.LBB0_49
.LBB0_52:                               # %after_bb64
	cmpq	$0, 16(%rsi)
	jne	.LBB0_54
# %bb.53:                               # %_halide_buffer_is_bounds_query.exit848
	cmpq	$0, (%rsi)
	je	.LBB0_57
.LBB0_54:                               # %after_bb67
	cmpq	$0, 16(%r13)
	jne	.LBB0_58
.LBB0_55:                               # %_halide_buffer_is_bounds_query.exit851
	cmpq	$0, (%r13)
	jne	.LBB0_58
# %bb.56:                               # %true_bb68
	vmovaps	.LCPI0_20(%rip), %ymm0          # ymm0 = [0,8,1,0,0,40,8,0]
	vmovups	%ymm0, 7264(%rsp)
	vmovaps	.LCPI0_21(%rip), %ymm0          # ymm0 = [0,7,320,0,0,4,2240,0]
	vmovups	%ymm0, 7296(%rsp)
	movq	40(%r13), %rax
	vxorps	%xmm0, %xmm0, %xmm0
	vmovups	%xmm0, (%r13)
	movq	$0, 16(%r13)
	movabsq	$17179942914, %rcx              # imm = 0x400012002
	movq	%rcx, 32(%r13)
	vmovups	7264(%rsp), %xmm0
	vmovups	%xmm0, (%rax)
	movq	40(%r13), %rax
	vmovups	7280(%rsp), %xmm0
	vmovups	%xmm0, 16(%rax)
	movq	40(%r13), %rax
	vmovups	7296(%rsp), %xmm0
	vmovups	%xmm0, 32(%rax)
	movq	40(%r13), %rax
	vmovdqu	7312(%rsp), %xmm0
	vmovdqu	%xmm0, 48(%rax)
	movq	$0, 24(%r13)
	jmp	.LBB0_58
.LBB0_57:                               # %true_bb65
	movq	40(%rsi), %rax
	vpxor	%xmm0, %xmm0, %xmm0
	vmovdqu	%xmm0, (%rsi)
	movq	$0, 16(%rsi)
	movabsq	$8590008322, %rcx               # imm = 0x200012002
	movq	%rcx, 32(%rsi)
	vmovaps	.LCPI0_10(%rip), %xmm0          # xmm0 = [0,8,1,0]
	vmovups	%xmm0, (%rax)
	movq	40(%rsi), %rax
	vmovdqa	.LCPI0_19(%rip), %xmm0          # xmm0 = [0,4,8,0]
	vmovdqu	%xmm0, 16(%rax)
	movq	$0, 24(%rsi)
	cmpq	$0, 16(%r13)
	je	.LBB0_55
.LBB0_58:                               # %after_bb70
	cmpq	$0, 16(%r8)
	jne	.LBB0_60
# %bb.59:                               # %_halide_buffer_is_bounds_query.exit854
	cmpq	$0, (%r8)
	je	.LBB0_62
.LBB0_60:                               # %after_bb73
	cmpq	$0, 16(%rdx)
	je	.LBB0_63
.LBB0_61:
	xorl	%r12d, %r12d
	cmpq	$0, 16(%r8)
	je	.LBB0_78
.LBB0_65:
	movl	$0, 160(%rsp)                   # 4-byte Folded Spill
	cmpq	$0, 16(%r13)
	je	.LBB0_79
.LBB0_66:
	movl	$0, 2128(%rsp)                  # 4-byte Folded Spill
	cmpq	$0, 16(%rsi)
	je	.LBB0_80
.LBB0_67:
	movl	$0, 2112(%rsp)                  # 4-byte Folded Spill
	cmpq	$0, 16(%r10)
	je	.LBB0_81
.LBB0_68:
	movl	$0, 2096(%rsp)                  # 4-byte Folded Spill
	cmpq	$0, 16(%r9)
	je	.LBB0_82
.LBB0_69:
	movl	$0, 816(%rsp)                   # 4-byte Folded Spill
	movq	440(%rsp), %rax                 # 8-byte Reload
	cmpq	$0, 16(%r15)
	je	.LBB0_83
.LBB0_70:
	movl	$0, 808(%rsp)                   # 4-byte Folded Spill
	cmpq	$0, 16(%r11)
	je	.LBB0_84
.LBB0_71:
	movl	$0, 800(%rsp)                   # 4-byte Folded Spill
	cmpq	$0, 16(%rbx)
	je	.LBB0_85
.LBB0_72:
	movl	$0, 792(%rsp)                   # 4-byte Folded Spill
	movq	136(%rbp), %rdx
	cmpq	$0, 16(%rdi)
	je	.LBB0_86
.LBB0_73:
	movl	$0, 1048(%rsp)                  # 4-byte Folded Spill
	movq	24(%rbp), %rcx
	cmpq	$0, 16(%rax)
	je	.LBB0_87
.LBB0_74:
	xorl	%r13d, %r13d
	cmpq	$0, 16(%rdx)
	je	.LBB0_88
.LBB0_75:
	xorl	%ebx, %ebx
	jmp	.LBB0_89
.LBB0_62:                               # %true_bb71
	movq	40(%r8), %rax
	vpxor	%xmm0, %xmm0, %xmm0
	vmovdqu	%xmm0, (%r8)
	movq	$0, 16(%r8)
	movabsq	$8590008322, %rcx               # imm = 0x200012002
	movq	%rcx, 32(%r8)
	vmovaps	.LCPI0_13(%rip), %xmm0          # xmm0 = [0,24,1,0]
	vmovups	%xmm0, (%rax)
	movq	40(%r8), %rax
	vmovdqa	.LCPI0_22(%rip), %xmm0          # xmm0 = [0,4,24,0]
	vmovdqu	%xmm0, 16(%rax)
	movq	$0, 24(%r8)
	cmpq	$0, 16(%rdx)
	jne	.LBB0_61
.LBB0_63:                               # %_halide_buffer_is_bounds_query.exit857
	cmpq	$0, (%rdx)
	je	.LBB0_76
.LBB0_64:                               # %after_bb76.thread
	cmpq	$0, (%rdx)
	sete	%r12b
	cmpq	$0, 16(%r8)
	jne	.LBB0_65
.LBB0_78:
	cmpq	$0, (%r8)
	sete	%al
	movl	%eax, 160(%rsp)                 # 4-byte Spill
	cmpq	$0, 16(%r13)
	jne	.LBB0_66
.LBB0_79:
	cmpq	$0, (%r13)
	sete	%al
	movl	%eax, 2128(%rsp)                # 4-byte Spill
	cmpq	$0, 16(%rsi)
	jne	.LBB0_67
.LBB0_80:
	cmpq	$0, (%rsi)
	sete	%al
	movl	%eax, 2112(%rsp)                # 4-byte Spill
	cmpq	$0, 16(%r10)
	jne	.LBB0_68
.LBB0_81:
	cmpq	$0, (%r10)
	sete	%al
	movl	%eax, 2096(%rsp)                # 4-byte Spill
	cmpq	$0, 16(%r9)
	jne	.LBB0_69
.LBB0_82:
	cmpq	$0, (%r9)
	sete	%al
	movl	%eax, 816(%rsp)                 # 4-byte Spill
	movq	440(%rsp), %rax                 # 8-byte Reload
	cmpq	$0, 16(%r15)
	jne	.LBB0_70
.LBB0_83:
	cmpq	$0, (%r15)
	sete	%cl
	movl	%ecx, 808(%rsp)                 # 4-byte Spill
	cmpq	$0, 16(%r11)
	jne	.LBB0_71
.LBB0_84:
	cmpq	$0, (%r11)
	sete	%cl
	movl	%ecx, 800(%rsp)                 # 4-byte Spill
	cmpq	$0, 16(%rbx)
	jne	.LBB0_72
.LBB0_85:
	cmpq	$0, (%rbx)
	sete	%cl
	movl	%ecx, 792(%rsp)                 # 4-byte Spill
	movq	136(%rbp), %rdx
	cmpq	$0, 16(%rdi)
	jne	.LBB0_73
.LBB0_86:
	cmpq	$0, (%rdi)
	sete	%cl
	movl	%ecx, 1048(%rsp)                # 4-byte Spill
	movq	24(%rbp), %rcx
	cmpq	$0, 16(%rax)
	jne	.LBB0_74
.LBB0_87:
	cmpq	$0, (%rax)
	sete	%r13b
	cmpq	$0, 16(%rdx)
	jne	.LBB0_75
.LBB0_88:
	cmpq	$0, (%rdx)
	sete	%bl
.LBB0_89:                               # %_halide_buffer_is_bounds_query.exit871
	movq	16(%rbp), %rdx
	movq	40(%rbp), %rsi
	movq	32(%rbp), %rdi
	movq	144(%rbp), %rax
	cmpq	$0, 16(%rax)
	je	.LBB0_97
# %bb.90:
	xorl	%eax, %eax
	cmpq	$0, 16(%rcx)
	je	.LBB0_98
.LBB0_91:
	xorl	%r8d, %r8d
	cmpq	$0, 16(%rdi)
	je	.LBB0_99
.LBB0_92:
	xorl	%r9d, %r9d
	cmpq	$0, 16(%r14)
	je	.LBB0_100
.LBB0_93:
	xorl	%r10d, %r10d
	movq	48(%rbp), %rcx
	cmpq	$0, 16(%rdx)
	je	.LBB0_101
.LBB0_94:
	xorl	%r11d, %r11d
	movq	408(%rsp), %rdi                 # 8-byte Reload
	cmpq	$0, 16(%rsi)
	je	.LBB0_102
.LBB0_95:
	xorl	%r15d, %r15d
	movl	%r12d, %esi
	cmpq	$0, 16(%rcx)
	je	.LBB0_103
.LBB0_96:
	xorl	%r14d, %r14d
	jmp	.LBB0_104
.LBB0_97:
	cmpq	$0, (%rax)
	sete	%al
	cmpq	$0, 16(%rcx)
	jne	.LBB0_91
.LBB0_98:
	cmpq	$0, (%rcx)
	sete	%r8b
	cmpq	$0, 16(%rdi)
	jne	.LBB0_92
.LBB0_99:
	cmpq	$0, (%rdi)
	sete	%r9b
	cmpq	$0, 16(%r14)
	jne	.LBB0_93
.LBB0_100:
	cmpq	$0, (%r14)
	sete	%r10b
	movq	48(%rbp), %rcx
	cmpq	$0, 16(%rdx)
	jne	.LBB0_94
.LBB0_101:
	cmpq	$0, (%rdx)
	sete	%r11b
	movq	408(%rsp), %rdi                 # 8-byte Reload
	cmpq	$0, 16(%rsi)
	jne	.LBB0_95
.LBB0_102:
	cmpq	$0, (%rsi)
	sete	%r15b
	movl	%r12d, %esi
	cmpq	$0, 16(%rcx)
	jne	.LBB0_96
.LBB0_103:
	cmpq	$0, (%rcx)
	sete	%r14b
.LBB0_104:                              # %_halide_buffer_is_bounds_query.exit878
	movl	%r13d, %ecx
	xorl	%r12d, %r12d
	movq	160(%rbp), %rdx
	cmpq	$0, 16(%rdx)
	movl	$0, %r13d
	jne	.LBB0_106
# %bb.105:
	cmpq	$0, (%rdx)
	sete	%r13b
.LBB0_106:                              # %_halide_buffer_is_bounds_query.exit879
	orb	%r13b, %r14b
	orb	%r14b, %r15b
	orb	%r15b, %r11b
	orb	%r11b, %r10b
	orb	%r10b, %r9b
	orb	%r9b, %r8b
	orb	%r8b, %al
	orb	%al, %bl
	orb	%bl, %cl
	movl	1048(%rsp), %eax                # 4-byte Reload
	orb	%cl, %al
	movl	792(%rsp), %ecx                 # 4-byte Reload
	orb	%al, %cl
	movl	800(%rsp), %eax                 # 4-byte Reload
	orb	%cl, %al
	movl	808(%rsp), %ecx                 # 4-byte Reload
	orb	%al, %cl
	movl	816(%rsp), %eax                 # 4-byte Reload
	orb	%cl, %al
	movl	2096(%rsp), %ecx                # 4-byte Reload
	orb	%al, %cl
	movl	2112(%rsp), %eax                # 4-byte Reload
	orb	%cl, %al
	movl	2128(%rsp), %ecx                # 4-byte Reload
	orb	%al, %cl
	movl	160(%rsp), %eax                 # 4-byte Reload
	orb	%cl, %al
	orb	%al, %sil
	testb	$1, %sil
	je	.LBB0_109
# %bb.107:
	xorl	%r15d, %r15d
.LBB0_108:                              # %call_destructor.exit800.thread1030
	xorl	%edx, %edx
	xorl	%r14d, %r14d
	xorl	%eax, %eax
	movq	%rax, 96(%rsp)                  # 8-byte Spill
	xorl	%r13d, %r13d
	xorl	%eax, %eax
	movq	%rax, 128(%rsp)                 # 8-byte Spill
	xorl	%eax, %eax
	movq	%rax, 72(%rsp)                  # 8-byte Spill
	xorl	%eax, %eax
	movq	%rax, 56(%rsp)                  # 8-byte Spill
	xorl	%ecx, %ecx
	xorl	%eax, %eax
	movq	%rax, 64(%rsp)                  # 8-byte Spill
	xorl	%eax, %eax
	movq	%rax, 896(%rsp)                 # 8-byte Spill
	jmp	.LBB0_286
.LBB0_109:                              # %true_bb77
	vmovdqa	%xmm3, 2096(%rsp)               # 16-byte Spill
	vmovdqa	%xmm2, 2112(%rsp)               # 16-byte Spill
	vmovdqa	%xmm1, 2128(%rsp)               # 16-byte Spill
	xorl	%eax, %eax
	cmpl	$73730, 1800(%rsp)              # 4-byte Folded Reload
                                        # imm = 0x12002
	setne	%al
	movq	%rax, 160(%rsp)                 # 8-byte Spill
	xorl	%eax, %eax
	cmpl	$1, 788(%rsp)                   # 4-byte Folded Reload
	sete	%al
	movl	%eax, 816(%rsp)                 # 4-byte Spill
	xorl	%eax, %eax
	cmpl	$73730, 1792(%rsp)              # 4-byte Folded Reload
                                        # imm = 0x12002
	sete	%al
	movl	%eax, 808(%rsp)                 # 4-byte Spill
	xorl	%eax, %eax
	cmpl	$1, 1784(%rsp)                  # 4-byte Folded Reload
	sete	%al
	movl	%eax, 800(%rsp)                 # 4-byte Spill
	xorl	%eax, %eax
	cmpl	$73730, 1776(%rsp)              # 4-byte Folded Reload
                                        # imm = 0x12002
	sete	%al
	movl	%eax, 1000(%rsp)                # 4-byte Spill
	xorl	%eax, %eax
	cmpl	$2, 1040(%rsp)                  # 4-byte Folded Reload
	sete	%al
	movl	%eax, 1916(%rsp)                # 4-byte Spill
	xorl	%eax, %eax
	cmpl	$73730, 1768(%rsp)              # 4-byte Folded Reload
                                        # imm = 0x12002
	sete	%al
	movl	%eax, 1912(%rsp)                # 4-byte Spill
	xorl	%eax, %eax
	cmpl	$1, 1760(%rsp)                  # 4-byte Folded Reload
	sete	%al
	movl	%eax, 1008(%rsp)                # 4-byte Spill
	xorl	%eax, %eax
	cmpl	$73730, 1752(%rsp)              # 4-byte Folded Reload
                                        # imm = 0x12002
	sete	%al
	movl	%eax, 1048(%rsp)                # 4-byte Spill
	xorl	%eax, %eax
	cmpl	$3, 1744(%rsp)                  # 4-byte Folded Reload
	sete	%al
	movl	%eax, 1012(%rsp)                # 4-byte Spill
	xorl	%r11d, %r11d
	cmpl	$73730, 1736(%rsp)              # 4-byte Folded Reload
                                        # imm = 0x12002
	sete	%r11b
	xorl	%r10d, %r10d
	cmpl	$1, 1728(%rsp)                  # 4-byte Folded Reload
	sete	%r10b
	xorl	%eax, %eax
	cmpl	$73730, 1720(%rsp)              # 4-byte Folded Reload
                                        # imm = 0x12002
	sete	%al
	movl	%eax, 1900(%rsp)                # 4-byte Spill
	xorl	%eax, %eax
	cmpl	$2, 1712(%rsp)                  # 4-byte Folded Reload
	sete	%al
	movl	%eax, 1904(%rsp)                # 4-byte Spill
	xorl	%eax, %eax
	cmpl	$73730, 1704(%rsp)              # 4-byte Folded Reload
                                        # imm = 0x12002
	sete	%al
	movl	%eax, 1908(%rsp)                # 4-byte Spill
	xorl	%eax, %eax
	cmpl	$1, 1696(%rsp)                  # 4-byte Folded Reload
	sete	%al
	movl	%eax, 1932(%rsp)                # 4-byte Spill
	xorl	%eax, %eax
	cmpl	$73730, 1688(%rsp)              # 4-byte Folded Reload
                                        # imm = 0x12002
	sete	%al
	movl	%eax, 1928(%rsp)                # 4-byte Spill
	xorl	%eax, %eax
	cmpl	$0, 1680(%rsp)                  # 4-byte Folded Reload
	sete	%al
	movl	%eax, 1924(%rsp)                # 4-byte Spill
	xorl	%eax, %eax
	cmpl	$73730, 1672(%rsp)              # 4-byte Folded Reload
                                        # imm = 0x12002
	sete	%al
	movl	%eax, 1920(%rsp)                # 4-byte Spill
	xorl	%eax, %eax
	cmpl	$3, 1664(%rsp)                  # 4-byte Folded Reload
	sete	%al
	movl	%eax, 1936(%rsp)                # 4-byte Spill
	xorl	%eax, %eax
	cmpl	$73730, 1656(%rsp)              # 4-byte Folded Reload
                                        # imm = 0x12002
	sete	%al
	movl	%eax, 792(%rsp)                 # 4-byte Spill
	xorl	%eax, %eax
	cmpl	$1, 1648(%rsp)                  # 4-byte Folded Reload
	sete	%al
	movl	%eax, 1004(%rsp)                # 4-byte Spill
	xorl	%eax, %eax
	cmpl	$73730, 724(%rsp)               # 4-byte Folded Reload
                                        # imm = 0x12002
	setne	%al
	shlq	$38, %rax
	movq	%rax, 2176(%rsp)                # 8-byte Spill
	xorl	%esi, %esi
	cmpl	$3, 720(%rsp)                   # 4-byte Folded Reload
	setne	%sil
	shlq	$39, %rsi
	testl	%edi, %edi
	setg	%al
	movq	832(%rsp), %rdx                 # 8-byte Reload
	leal	(%rdx,%rdi), %ecx
	movl	%ecx, 1896(%rsp)                # 4-byte Spill
	cmpl	$32, %ecx
	setl	%cl
	orb	%al, %cl
	movb	%cl, 287(%rsp)                  # 1-byte Spill
	movl	%edx, %eax
	andl	$-2147483648, %eax              # imm = 0x80000000
	shlq	$10, %rax
	movq	%rax, 2168(%rsp)                # 8-byte Spill
	movq	1320(%rsp), %rax                # 8-byte Reload
                                        # kill: def $eax killed $eax killed $rax def $rax
	andl	$-2147483648, %eax              # imm = 0x80000000
	shlq	$11, %rax
	movq	%rax, 2160(%rsp)                # 8-byte Spill
	movq	1272(%rsp), %rdx                # 8-byte Reload
	testl	%edx, %edx
	setg	%al
	movq	1232(%rsp), %rdi                # 8-byte Reload
	leal	(%rdi,%rdx), %ecx
	movl	%ecx, 1892(%rsp)                # 4-byte Spill
	cmpl	$32, %ecx
	setl	%r15b
	orb	%al, %r15b
                                        # kill: def $edi killed $edi killed $rdi def $rdi
	andl	$-2147483648, %edi              # imm = 0x80000000
	shlq	$13, %rdi
	movq	%rdi, 2152(%rsp)                # 8-byte Spill
	movq	1264(%rsp), %rdx                # 8-byte Reload
	cmpl	572(%rsp), %edx                 # 4-byte Folded Reload
	setg	%al
	movq	1384(%rsp), %rcx                # 8-byte Reload
	leal	24(%rcx), %ecx
	movq	1216(%rsp), %rdi                # 8-byte Reload
	addl	%edi, %edx
	movl	%edx, 1888(%rsp)                # 4-byte Spill
	cmpl	%edx, %ecx
	vmovd	%r11d, %xmm0
	vpinsrb	$4, %r10d, %xmm0, %xmm0
	setg	%r9b
	orb	%al, %r9b
                                        # kill: def $edi killed $edi killed $rdi def $rdi
	andl	$-2147483648, %edi              # imm = 0x80000000
	shlq	$15, %rdi
	movq	%rdi, 2144(%rsp)                # 8-byte Spill
	movq	1200(%rsp), %rax                # 8-byte Reload
	testl	%eax, %eax
	setg	%cl
	movq	1184(%rsp), %r13                # 8-byte Reload
	addl	%r13d, %eax
	movl	%eax, 1884(%rsp)                # 4-byte Spill
	cmpl	$8, %eax
	setl	%bl
	orb	%cl, %bl
                                        # kill: def $r13d killed $r13d killed $r13 def $r13
	andl	$-2147483648, %r13d             # imm = 0x80000000
	shlq	$17, %r13
	movq	1168(%rsp), %rcx                # 8-byte Reload
	testl	%ecx, %ecx
	setg	%al
	movq	288(%rsp), %r14                 # 8-byte Reload
	addl	%r14d, %ecx
	movl	%ecx, 1880(%rsp)                # 4-byte Spill
	cmpl	$8, %ecx
	setl	%dl
	orb	%al, %dl
                                        # kill: def $r14d killed $r14d killed $r14 def $r14
	andl	$-2147483648, %r14d             # imm = 0x80000000
	shlq	$19, %r14
	movq	216(%rsp), %rax                 # 8-byte Reload
	testl	%eax, %eax
	setg	%r8b
	movq	488(%rsp), %r10                 # 8-byte Reload
	addl	%r10d, %eax
	movl	%eax, 1876(%rsp)                # 4-byte Spill
	cmpl	$40, %eax
	setl	%cl
	orb	%r8b, %cl
	movl	%r10d, %r11d
	andl	$-2147483648, %r11d             # imm = 0x80000000
	shlq	$21, %r11
	movq	144(%rsp), %rax                 # 8-byte Reload
	testl	%eax, %eax
	setg	%r8b
	movq	480(%rsp), %rdi                 # 8-byte Reload
	addl	%edi, %eax
	movl	%eax, 1872(%rsp)                # 4-byte Spill
	cmpl	$7, %eax
	setl	%al
	orb	%r8b, %al
	movl	%edi, %r10d
	andl	$-2147483648, %r10d             # imm = 0x80000000
	shlq	$23, %r10
	movq	664(%rsp), %r12                 # 8-byte Reload
	testl	%r12d, %r12d
	setg	%dil
	movq	872(%rsp), %r8                  # 8-byte Reload
	addl	%r8d, %r12d
	movl	%r12d, 1868(%rsp)               # 4-byte Spill
	cmpl	$24, %r12d
	setl	%r12b
	orb	%dil, %r12b
	movzbl	%r12b, %edi
	vpinsrb	$8, %edi, %xmm0, %xmm0
	vpinsrb	$12, 1900(%rsp), %xmm0, %xmm9   # 4-byte Folded Reload
	movzbl	%dl, %edx
	vmovd	%edx, %xmm0
	movzbl	%r9b, %edx
	vpinsrb	$4, %edx, %xmm0, %xmm0
	movzbl	%cl, %ecx
	vpinsrb	$8, %ecx, %xmm0, %xmm0
	movzbl	%al, %eax
	vpinsrb	$12, %eax, %xmm0, %xmm8
	vmovd	1000(%rsp), %xmm2               # 4-byte Folded Reload
                                        # xmm2 = mem[0],zero,zero,zero
	vpinsrb	$4, 1916(%rsp), %xmm2, %xmm2    # 4-byte Folded Reload
	movzbl	%r15b, %eax
	vpinsrb	$8, %eax, %xmm2, %xmm2
	vpinsrb	$12, 1912(%rsp), %xmm2, %xmm10  # 4-byte Folded Reload
	vmovd	1904(%rsp), %xmm3               # 4-byte Folded Reload
                                        # xmm3 = mem[0],zero,zero,zero
	movl	%r8d, %edi
	andl	$-2147483648, %edi              # imm = 0x80000000
	shlq	$25, %rdi
	movq	864(%rsp), %rcx                 # 8-byte Reload
	testl	%ecx, %ecx
	setg	%al
	movq	848(%rsp), %r12                 # 8-byte Reload
	addl	%r12d, %ecx
	movl	%ecx, 1000(%rsp)                # 4-byte Spill
	cmpl	$24, %ecx
	setl	%cl
	orb	%al, %cl
	movzbl	%cl, %eax
	vpinsrb	$4, %eax, %xmm3, %xmm3
                                        # kill: def $r12d killed $r12d killed $r12 def $r12
	andl	$-2147483648, %r12d             # imm = 0x80000000
	shlq	$27, %r12
	movq	856(%rsp), %rcx                 # 8-byte Reload
	testl	%ecx, %ecx
	setg	%al
	movq	840(%rsp), %rdx                 # 8-byte Reload
	leal	(%rdx,%rcx), %r8d
	cmpl	$39, %r8d
	setl	%cl
	orb	%al, %cl
	movzbl	%cl, %eax
	vpinsrb	$8, %eax, %xmm3, %xmm3
	vpinsrb	$12, 1908(%rsp), %xmm3, %xmm12  # 4-byte Folded Reload
	vmovd	816(%rsp), %xmm3                # 4-byte Folded Reload
                                        # xmm3 = mem[0],zero,zero,zero
	movzbl	287(%rsp), %eax                 # 1-byte Folded Reload
	vpinsrb	$4, %eax, %xmm3, %xmm3
	vpinsrb	$8, 808(%rsp), %xmm3, %xmm3     # 4-byte Folded Reload
	vpinsrb	$12, 800(%rsp), %xmm3, %xmm11   # 4-byte Folded Reload
	vmovd	1008(%rsp), %xmm5               # 4-byte Folded Reload
                                        # xmm5 = mem[0],zero,zero,zero
	movzbl	%bl, %eax
	vpinsrb	$4, %eax, %xmm5, %xmm5
	vpinsrb	$8, 1048(%rsp), %xmm5, %xmm5    # 4-byte Folded Reload
	vpinsrb	$12, 1012(%rsp), %xmm5, %xmm5   # 4-byte Folded Reload
	vmovd	1932(%rsp), %xmm6               # 4-byte Folded Reload
                                        # xmm6 = mem[0],zero,zero,zero
	vpinsrb	$4, 1928(%rsp), %xmm6, %xmm6    # 4-byte Folded Reload
	vpinsrb	$8, 1924(%rsp), %xmm6, %xmm6    # 4-byte Folded Reload
	vpinsrb	$12, 1920(%rsp), %xmm6, %xmm6   # 4-byte Folded Reload
	vmovd	1936(%rsp), %xmm7               # 4-byte Folded Reload
                                        # xmm7 = mem[0],zero,zero,zero
	movl	%edx, %ebx
	andl	$-2147483648, %ebx              # imm = 0x80000000
	shlq	$29, %rbx
	movq	424(%rsp), %r15                 # 8-byte Reload
                                        # kill: def $r15d killed $r15d killed $r15 def $r15
	andl	$-2147483648, %r15d             # imm = 0x80000000
	shlq	$30, %r15
	movq	1328(%rsp), %rcx                # 8-byte Reload
	testl	%ecx, %ecx
	setg	%al
	movq	152(%rsp), %r9                  # 8-byte Reload
	addl	%r9d, %ecx
	cmpl	$40, %ecx
	setl	%dl
	orb	%al, %dl
	movzbl	%dl, %eax
	vpinsrb	$4, %eax, %xmm7, %xmm7
	vpinsrb	$8, 792(%rsp), %xmm7, %xmm7     # 4-byte Folded Reload
	vpinsrb	$12, 1004(%rsp), %xmm7, %xmm7   # 4-byte Folded Reload
	vmovd	740(%rsp), %xmm0                # 4-byte Folded Reload
                                        # xmm0 = mem[0],zero,zero,zero
	vpinsrd	$1, 736(%rsp), %xmm0, %xmm0     # 4-byte Folded Reload
	vpinsrd	$2, 732(%rsp), %xmm0, %xmm0     # 4-byte Folded Reload
	vpinsrd	$3, 728(%rsp), %xmm0, %xmm0     # 4-byte Folded Reload
	vmovd	756(%rsp), %xmm1                # 4-byte Folded Reload
                                        # xmm1 = mem[0],zero,zero,zero
	vpinsrd	$1, 752(%rsp), %xmm1, %xmm1     # 4-byte Folded Reload
	vpinsrd	$2, 748(%rsp), %xmm1, %xmm1     # 4-byte Folded Reload
	vpinsrd	$3, 744(%rsp), %xmm1, %xmm1     # 4-byte Folded Reload
	vmovd	772(%rsp), %xmm2                # 4-byte Folded Reload
                                        # xmm2 = mem[0],zero,zero,zero
	vpinsrd	$1, 768(%rsp), %xmm2, %xmm2     # 4-byte Folded Reload
	vpinsrd	$2, 764(%rsp), %xmm2, %xmm2     # 4-byte Folded Reload
	vpinsrd	$3, 760(%rsp), %xmm2, %xmm2     # 4-byte Folded Reload
	vmovd	1640(%rsp), %xmm3               # 4-byte Folded Reload
                                        # xmm3 = mem[0],zero,zero,zero
	vpinsrd	$1, 784(%rsp), %xmm3, %xmm3     # 4-byte Folded Reload
	vpinsrd	$2, 780(%rsp), %xmm3, %xmm3     # 4-byte Folded Reload
	vinserti128	$1, %xmm0, %ymm1, %ymm0
	vpinsrd	$3, 776(%rsp), %xmm3, %xmm1     # 4-byte Folded Reload
	vinserti128	$1, %xmm2, %ymm1, %ymm1
	vpcmpeqd	.LCPI0_24(%rip), %ymm1, %ymm1
	vpcmpeqd	.LCPI0_25(%rip), %ymm0, %ymm0
	vpmovsxdq	%xmm1, %ymm2
	vpslld	$31, %xmm9, %xmm3
	vpmovsxdq	%xmm3, %ymm3
	vmovapd	.LCPI0_31(%rip), %ymm9          # ymm9 = [1024,2048,0,4096]
	vblendvpd	%ymm3, .LCPI0_30(%rip), %ymm9, %ymm3
	vpmovsxdq	%xmm0, %ymm9
	vpandn	.LCPI0_26(%rip), %ymm9, %ymm9
	vpandn	.LCPI0_27(%rip), %ymm2, %ymm2
	vpor	%ymm2, %ymm9, %ymm2
	vpslld	$31, %xmm10, %xmm4
	vpmovsxdq	%xmm4, %ymm4
	vmovapd	.LCPI0_34(%rip), %ymm9          # ymm9 = [16,32,0,64]
	vblendvpd	%ymm4, .LCPI0_33(%rip), %ymm9, %ymm4
	vextracti128	$1, %ymm1, %xmm1
	vpmovsxdq	%xmm1, %ymm1
	vextracti128	$1, %ymm0, %xmm0
	vpmovsxdq	%xmm0, %ymm0
	vpandn	.LCPI0_28(%rip), %ymm0, %ymm0
	vpandn	.LCPI0_29(%rip), %ymm1, %ymm1
	vpor	%ymm0, %ymm1, %ymm0
	vpor	%ymm0, %ymm2, %ymm0
	vpslld	$31, %xmm12, %xmm1
	vpmovsxdq	%xmm1, %ymm1
	vmovapd	.LCPI0_36(%rip), %ymm2          # ymm2 = [8192,0,0,16384]
	vblendvpd	%ymm1, .LCPI0_35(%rip), %ymm2, %ymm1
	vextracti128	$1, %ymm0, %xmm2
	vpor	%xmm2, %xmm0, %xmm0
	vpshufd	$78, %xmm0, %xmm2               # xmm2 = xmm0[2,3,0,1]
	vpor	%xmm2, %xmm0, %xmm0
	vmovq	%xmm0, %rax
	orq	2176(%rsp), %rax                # 8-byte Folded Reload
	vpslld	$31, %xmm11, %xmm0
	vpmovsxdq	%xmm0, %ymm0
	vmovapd	.LCPI0_38(%rip), %ymm2          # ymm2 = [2,0,4,8]
	vblendvpd	%ymm0, .LCPI0_37(%rip), %ymm2, %ymm0
	vorpd	%ymm1, %ymm4, %ymm1
	vpslld	$31, %xmm5, %xmm2
	vpmovsxdq	%xmm2, %ymm2
	vmovapd	.LCPI0_40(%rip), %ymm4          # ymm4 = [128,0,256,512]
	vblendvpd	%ymm2, .LCPI0_39(%rip), %ymm4, %ymm2
	vpslld	$31, %xmm8, %xmm4
	vpmovsxdq	%xmm4, %ymm4
	vpand	.LCPI0_32(%rip), %ymm4, %ymm4
	vpslld	$31, %xmm6, %xmm5
	vpsrad	$31, %xmm5, %xmm5
	vpmovsxdq	%xmm5, %ymm5
	vpandn	.LCPI0_41(%rip), %ymm5, %ymm5
	vorpd	%ymm3, %ymm0, %ymm0
	vorpd	%ymm5, %ymm2, %ymm2
	vpslld	$31, %xmm7, %xmm3
	vpmovsxdq	%xmm3, %ymm3
	vmovapd	.LCPI0_43(%rip), %ymm5          # ymm5 = [524288,0,1048576,2097152]
	vblendvpd	%ymm3, .LCPI0_42(%rip), %ymm5, %ymm3
	vorpd	%ymm2, %ymm0, %ymm0
	vpor	%ymm3, %ymm4, %ymm2
	vorpd	%ymm2, %ymm1, %ymm1
	vorpd	%ymm1, %ymm0, %ymm0
	vextractf128	$1, %ymm0, %xmm1
	vorpd	%xmm1, %xmm0, %xmm0
	vpermilps	$78, %xmm0, %xmm1       # xmm1 = xmm0[2,3,0,1]
	vorpd	%xmm1, %xmm0, %xmm0
	vmovq	%xmm0, %rdx
	orq	%rdx, %rax
	orq	160(%rsp), %rsi                 # 8-byte Folded Reload
	orq	2168(%rsp), %rsi                # 8-byte Folded Reload
	orq	2160(%rsp), %rsi                # 8-byte Folded Reload
	orq	2152(%rsp), %rsi                # 8-byte Folded Reload
	orq	2144(%rsp), %rsi                # 8-byte Folded Reload
	orq	%r13, %rsi
	orq	%r14, %rsi
	orq	%r11, %rsi
	orq	%r10, %rsi
	orq	%rdi, %rsi
	orq	%r12, %rsi
	orq	%rbx, %rsi
	orq	%r15, %rsi
	movabsq	$-9223372036854775808, %rdx     # imm = 0x8000000000000000
	orq	%rdx, %rsi
	orq	%rax, %rsi
	xorl	%eax, %eax
	tzcntq	%rsi, %rax
	cmpl	$62, %eax
	jbe	.LBB0_334
# %bb.110:                              # %no_errors_bb80
	shrq	$31, %r9
	movq	%r9, 816(%rsp)                  # 8-byte Spill
	movq	504(%rsp), %rcx                 # 8-byte Reload
	testl	%ecx, %ecx
	setg	%al
	movq	968(%rsp), %rdx                 # 8-byte Reload
	addl	%edx, %ecx
	movl	%ecx, 768(%rsp)                 # 4-byte Spill
	cmpl	$7, %ecx
	setl	%cl
	orb	%al, %cl
	movb	%cl, 788(%rsp)                  # 1-byte Spill
	shrq	$29, %rdx
	andl	$-4, %edx
	movq	%rdx, 808(%rsp)                 # 8-byte Spill
	movq	544(%rsp), %rdx                 # 8-byte Reload
	testl	%edx, %edx
	setg	%al
	movq	40(%rsp), %rcx                  # 8-byte Reload
	testl	%ecx, %ecx
	movl	$1, %edi
	cmovgl	%ecx, %edi
	movq	976(%rsp), %rcx                 # 8-byte Reload
	addl	%ecx, %edx
	movl	%edx, 764(%rsp)                 # 4-byte Spill
	cmpl	%edx, %edi
	setg	%r9b
	orb	%al, %r9b
	shrq	$27, %rcx
	andl	$-16, %ecx
	movq	%rcx, 800(%rsp)                 # 8-byte Spill
	movq	632(%rsp), %rax                 # 8-byte Reload
	shrq	$25, %rax
	andl	$-64, %eax
	movq	%rax, 792(%rsp)                 # 8-byte Spill
	movq	272(%rsp), %rcx                 # 8-byte Reload
	cmpl	1568(%rsp), %ecx                # 4-byte Folded Reload
	setg	%al
	movq	88(%rsp), %rdx                  # 8-byte Reload
	addl	%edx, %ecx
	movl	%ecx, 760(%rsp)                 # 4-byte Spill
	cmpl	%ecx, 1036(%rsp)                # 4-byte Folded Reload
	setg	%sil
	orb	%al, %sil
	shrq	$23, %rdx
	andl	$256, %edx                      # imm = 0x100
	movq	%rdx, 1048(%rsp)                # 8-byte Spill
	movq	48(%rsp), %rcx                  # 8-byte Reload
	testl	%ecx, %ecx
	setg	%al
	movq	952(%rsp), %rdx                 # 8-byte Reload
	addl	%edx, %ecx
	movl	%ecx, 756(%rsp)                 # 4-byte Spill
	cmpl	$39, %ecx
	setl	%bl
	orb	%al, %bl
	shrq	$21, %rdx
	andl	$1024, %edx                     # imm = 0x400
	movq	%rdx, 1800(%rsp)                # 8-byte Spill
	movq	208(%rsp), %rcx                 # 8-byte Reload
	testl	%ecx, %ecx
	setg	%al
	movq	960(%rsp), %rdx                 # 8-byte Reload
	addl	%edx, %ecx
	movq	%rdi, 160(%rsp)                 # 8-byte Spill
	movl	%ecx, 752(%rsp)                 # 4-byte Spill
	cmpl	%ecx, %edi
	setg	%r14b
	orb	%al, %r14b
	shrq	$19, %rdx
	andl	$4096, %edx                     # imm = 0x1000
	movq	%rdx, 1792(%rsp)                # 8-byte Spill
	movq	1312(%rsp), %rax                # 8-byte Reload
	shrq	$18, %rax
	andl	$8192, %eax                     # imm = 0x2000
	movq	%rax, 1784(%rsp)                # 8-byte Spill
	movq	640(%rsp), %rax                 # 8-byte Reload
	testl	%eax, %eax
	setg	%cl
	movq	72(%rsp), %rdx                  # 8-byte Reload
	addl	%edx, %eax
	movl	%eax, 748(%rsp)                 # 4-byte Spill
	cmpl	%eax, 1032(%rsp)                # 4-byte Folded Reload
	setg	%al
	orb	%cl, %al
	shrq	$16, %rdx
	andl	$32768, %edx                    # imm = 0x8000
	movq	%rdx, 1776(%rsp)                # 8-byte Spill
	movq	824(%rsp), %rdx                 # 8-byte Reload
	testl	%edx, %edx
	setg	%cl
	movq	1296(%rsp), %rdi                # 8-byte Reload
	addl	%edi, %edx
	movl	%edx, 744(%rsp)                 # 4-byte Spill
	cmpl	$32, %edx
	setl	%r12b
	orb	%cl, %r12b
	movzbl	%r12b, %ecx
	vmovd	%ecx, %xmm0
	shrq	$14, %rdi
	andl	$131072, %edi                   # imm = 0x20000
	movq	%rdi, 1768(%rsp)                # 8-byte Spill
	movq	528(%rsp), %rdx                 # 8-byte Reload
	testl	%edx, %edx
	setg	%cl
	movq	1288(%rsp), %rdi                # 8-byte Reload
	addl	%edi, %edx
	movl	%edx, 740(%rsp)                 # 4-byte Spill
	cmpl	$4, %edx
	setl	%dl
	orb	%cl, %dl
	movzbl	%dl, %ecx
	vpinsrb	$4, %ecx, %xmm0, %xmm0
	movzbl	%sil, %ecx
	vpinsrb	$8, %ecx, %xmm0, %xmm0
	shrq	$12, %rdi
	andl	$524288, %edi                   # imm = 0x80000
	movq	%rdi, 1760(%rsp)                # 8-byte Spill
	movq	1280(%rsp), %rdx                # 8-byte Reload
	testl	%edx, %edx
	setg	%cl
	movq	1248(%rsp), %rsi                # 8-byte Reload
	addl	%esi, %edx
	movl	%edx, 736(%rsp)                 # 4-byte Spill
	cmpl	$32, %edx
	setl	%dl
	orb	%cl, %dl
	movzbl	%dl, %ecx
	vpinsrb	$12, %ecx, %xmm0, %xmm8
	movzbl	%r9b, %ecx
	vmovd	%ecx, %xmm0
	movzbl	%bl, %ecx
	vpinsrb	$4, %ecx, %xmm0, %xmm0
	movzbl	%r14b, %ecx
	vpinsrb	$8, %ecx, %xmm0, %xmm0
	movzbl	%al, %eax
	vpinsrb	$12, %eax, %xmm0, %xmm9
	shrq	$10, %rsi
	andl	$2097152, %esi                  # imm = 0x200000
	movq	%rsi, 1752(%rsp)                # 8-byte Spill
	movq	1256(%rsp), %rcx                # 8-byte Reload
	testl	%ecx, %ecx
	setg	%al
	movq	1224(%rsp), %rdx                # 8-byte Reload
	addl	%edx, %ecx
	movl	%ecx, 732(%rsp)                 # 4-byte Spill
	cmpl	$32, %ecx
	setl	%cl
	orb	%al, %cl
	movzbl	%cl, %eax
	vmovd	%eax, %xmm0
	shrq	$8, %rdx
	andl	$8388608, %edx                  # imm = 0x800000
	movq	%rdx, 1744(%rsp)                # 8-byte Spill
	movq	1240(%rsp), %rcx                # 8-byte Reload
	testl	%ecx, %ecx
	setg	%al
	movq	1208(%rsp), %rdx                # 8-byte Reload
	addl	%edx, %ecx
	movl	%ecx, 728(%rsp)                 # 4-byte Spill
	cmpl	$4, %ecx
	setl	%cl
	orb	%al, %cl
	movzbl	%cl, %eax
	vpinsrb	$4, %eax, %xmm0, %xmm0
	shrq	$6, %rdx
	andl	$33554432, %edx                 # imm = 0x2000000
	movq	%rdx, 1736(%rsp)                # 8-byte Spill
	movq	1192(%rsp), %rcx                # 8-byte Reload
	testl	%ecx, %ecx
	setg	%al
	movq	1176(%rsp), %rdx                # 8-byte Reload
	addl	%edx, %ecx
	movl	%ecx, 572(%rsp)                 # 4-byte Spill
	cmpl	$8, %ecx
	setl	%cl
	orb	%al, %cl
	movzbl	%cl, %eax
	vpinsrb	$8, %eax, %xmm0, %xmm0
	shrq	$4, %rdx
	andl	$134217728, %edx                # imm = 0x8000000
	movq	%rdx, 1728(%rsp)                # 8-byte Spill
	vmovdqa	2080(%rsp), %xmm1               # 16-byte Reload
	vmovd	%xmm1, %ecx
	testl	%ecx, %ecx
	setg	%al
	vpextrd	$1, %xmm1, %edx
	movq	%rcx, 2080(%rsp)                # 8-byte Spill
	addl	%edx, %ecx
	movl	%ecx, 1384(%rsp)                # 4-byte Spill
	cmpl	$4, %ecx
	setl	%cl
	orb	%al, %cl
	movzbl	%cl, %eax
	vpinsrb	$12, %eax, %xmm0, %xmm10
	movq	%rdx, 1040(%rsp)                # 8-byte Spill
                                        # kill: def $edx killed $edx killed $rdx def $rdx
	shrl	$2, %edx
	andl	$536870912, %edx                # imm = 0x20000000
	movq	%rdx, 1720(%rsp)                # 8-byte Spill
	movq	1160(%rsp), %rcx                # 8-byte Reload
	testl	%ecx, %ecx
	setg	%al
	movq	1144(%rsp), %rdx                # 8-byte Reload
	addl	%edx, %ecx
	movl	%ecx, 724(%rsp)                 # 4-byte Spill
	cmpl	$8, %ecx
	setl	%cl
	orb	%al, %cl
	movb	%cl, 780(%rsp)                  # 1-byte Spill
                                        # kill: def $edx killed $edx killed $rdx def $rdx
	andl	$-2147483648, %edx              # imm = 0x80000000
	movq	%rdx, 1712(%rsp)                # 8-byte Spill
	movq	1152(%rsp), %rcx                # 8-byte Reload
	testl	%ecx, %ecx
	setg	%al
	movq	1128(%rsp), %rdx                # 8-byte Reload
	addl	%edx, %ecx
	movl	%ecx, 720(%rsp)                 # 4-byte Spill
	cmpl	$40, %ecx
	setl	%r13b
	orb	%al, %r13b
                                        # kill: def $edx killed $edx killed $rdx def $rdx
	andl	$-2147483648, %edx              # imm = 0x80000000
	shlq	$2, %rdx
	movq	%rdx, 1704(%rsp)                # 8-byte Spill
	movq	1136(%rsp), %rdx                # 8-byte Reload
	testl	%edx, %edx
	setg	%al
	movq	1112(%rsp), %rcx                # 8-byte Reload
	addl	%ecx, %edx
	movl	%edx, 1012(%rsp)                # 4-byte Spill
	cmpl	$7, %edx
	setl	%r15b
	orb	%al, %r15b
                                        # kill: def $ecx killed $ecx killed $rcx def $rcx
	andl	$-2147483648, %ecx              # imm = 0x80000000
	shlq	$4, %rcx
	movq	%rcx, 1696(%rsp)                # 8-byte Spill
	movq	1120(%rsp), %rcx                # 8-byte Reload
	testl	%ecx, %ecx
	setg	%al
	movq	1104(%rsp), %rdx                # 8-byte Reload
	addl	%edx, %ecx
	movl	%ecx, 1008(%rsp)                # 4-byte Spill
	cmpl	$4, %ecx
	setl	%r14b
	orb	%al, %r14b
                                        # kill: def $edx killed $edx killed $rdx def $rdx
	andl	$-2147483648, %edx              # imm = 0x80000000
	shlq	$6, %rdx
	movq	%rdx, 1688(%rsp)                # 8-byte Spill
	movq	1096(%rsp), %rax                # 8-byte Reload
                                        # kill: def $eax killed $eax killed $rax def $rax
	andl	$-2147483648, %eax              # imm = 0x80000000
	shlq	$8, %rax
	movq	%rax, 1680(%rsp)                # 8-byte Spill
	movq	1088(%rsp), %rax                # 8-byte Reload
                                        # kill: def $eax killed $eax killed $rax def $rax
	andl	$-2147483648, %eax              # imm = 0x80000000
	shlq	$10, %rax
	movq	%rax, 1672(%rsp)                # 8-byte Spill
	movq	1072(%rsp), %rax                # 8-byte Reload
                                        # kill: def $eax killed $eax killed $rax def $rax
	andl	$-2147483648, %eax              # imm = 0x80000000
	shlq	$12, %rax
	movq	%rax, 1664(%rsp)                # 8-byte Spill
	movq	1064(%rsp), %rax                # 8-byte Reload
                                        # kill: def $eax killed $eax killed $rax def $rax
	andl	$-2147483648, %eax              # imm = 0x80000000
	shlq	$14, %rax
	movq	%rax, 1656(%rsp)                # 8-byte Spill
	movq	1080(%rsp), %rcx                # 8-byte Reload
	testl	%ecx, %ecx
	setg	%al
	movq	1056(%rsp), %rdx                # 8-byte Reload
	addl	%edx, %ecx
	movl	%ecx, 1004(%rsp)                # 4-byte Spill
	cmpl	$4, %ecx
	setl	%cl
	orb	%al, %cl
	movzbl	%cl, %eax
	shlq	$46, %rax
	movq	%rax, 1640(%rsp)                # 8-byte Spill
                                        # kill: def $edx killed $edx killed $rdx def $rdx
	andl	$-2147483648, %edx              # imm = 0x80000000
	shlq	$16, %rdx
	movq	%rdx, 1648(%rsp)                # 8-byte Spill
	xorl	%eax, %eax
	cmpl	$1, 1520(%rsp)                  # 4-byte Folded Reload
	sete	%al
	movl	%eax, 784(%rsp)                 # 4-byte Spill
	xorl	%eax, %eax
	cmpl	$0, 408(%rsp)                   # 4-byte Folded Reload
	sete	%al
	movl	%eax, 772(%rsp)                 # 4-byte Spill
	xorl	%r12d, %r12d
	cmpl	$32, 832(%rsp)                  # 4-byte Folded Reload
	sete	%r12b
	xorl	%eax, %eax
	cmpl	$1, 1512(%rsp)                  # 4-byte Folded Reload
	sete	%al
	movl	%eax, 776(%rsp)                 # 4-byte Spill
	xorl	%ebx, %ebx
	cmpl	$1, 1504(%rsp)                  # 4-byte Folded Reload
	sete	%bl
	xorl	%r10d, %r10d
	cmpl	$0, 1272(%rsp)                  # 4-byte Folded Reload
	sete	%r10b
	xorl	%r9d, %r9d
	cmpl	$32, 1232(%rsp)                 # 4-byte Folded Reload
	sete	%r9b
	xorl	%r11d, %r11d
	cmpl	$0, 1264(%rsp)                  # 4-byte Folded Reload
	sete	%r11b
	xorl	%edi, %edi
	cmpl	$32, 1216(%rsp)                 # 4-byte Folded Reload
	sete	%dil
	xorl	%r8d, %r8d
	cmpl	$1, 1500(%rsp)                  # 4-byte Folded Reload
	sete	%r8b
	xorl	%edx, %edx
	cmpl	$0, 1200(%rsp)                  # 4-byte Folded Reload
	sete	%dl
	xorl	%esi, %esi
	cmpl	$8, 1184(%rsp)                  # 4-byte Folded Reload
	sete	%sil
	xorl	%ecx, %ecx
	cmpl	$1, 1492(%rsp)                  # 4-byte Folded Reload
	sete	%cl
	xorl	%eax, %eax
	cmpl	$0, 1168(%rsp)                  # 4-byte Folded Reload
	sete	%al
	vmovd	%eax, %xmm0
	xorl	%eax, %eax
	cmpl	$8, 288(%rsp)                   # 4-byte Folded Reload
	sete	%al
	vpinsrb	$4, %eax, %xmm0, %xmm0
	vpinsrb	$8, %ecx, %xmm0, %xmm0
	movzbl	788(%rsp), %eax                 # 1-byte Folded Reload
	vpinsrb	$12, %eax, %xmm0, %xmm4
	movzbl	780(%rsp), %eax                 # 1-byte Folded Reload
	vmovd	%eax, %xmm0
	movzbl	%r13b, %eax
	movq	1088(%rsp), %r13                # 8-byte Reload
	vpinsrb	$4, %eax, %xmm0, %xmm0
	movzbl	%r15b, %eax
	movq	1096(%rsp), %r15                # 8-byte Reload
	vpinsrb	$8, %eax, %xmm0, %xmm0
	movzbl	%r14b, %eax
	vpinsrb	$12, %eax, %xmm0, %xmm3
	vmovd	%edi, %xmm0
	movq	1072(%rsp), %rdi                # 8-byte Reload
	vpinsrb	$4, %edx, %xmm0, %xmm0
	vpinsrb	$8, %esi, %xmm0, %xmm0
	vpinsrb	$12, %r8d, %xmm0, %xmm5
	vmovd	%r10d, %xmm0
	vpinsrb	$4, %r9d, %xmm0, %xmm0
	vpinsrb	$8, %ebx, %xmm0, %xmm0
	movq	1064(%rsp), %rbx                # 8-byte Reload
	vpinsrb	$12, %r11d, %xmm0, %xmm7
	vmovd	772(%rsp), %xmm0                # 4-byte Folded Reload
                                        # xmm0 = mem[0],zero,zero,zero
	vpinsrb	$4, %r12d, %xmm0, %xmm0
	vpinsrb	$8, 784(%rsp), %xmm0, %xmm0     # 4-byte Folded Reload
	vpinsrb	$12, 776(%rsp), %xmm0, %xmm0    # 4-byte Folded Reload
	movl	1028(%rsp), %edx                # 4-byte Reload
	vmovd	%edx, %xmm6
	movl	1024(%rsp), %esi                # 4-byte Reload
	vpinsrd	$1, %esi, %xmm6, %xmm6
	movl	1020(%rsp), %r11d               # 4-byte Reload
	vpinsrd	$2, %r11d, %xmm6, %xmm6
	movl	1016(%rsp), %r14d               # 4-byte Reload
	vpinsrd	$3, %r14d, %xmm6, %xmm6
	vpxor	%xmm1, %xmm1, %xmm1
	vmovd	%r15d, %xmm2
	vpinsrd	$1, %r13d, %xmm2, %xmm2
	vpinsrd	$2, %edi, %xmm2, %xmm2
	vpinsrd	$3, %ebx, %xmm2, %xmm2
	vpcmpgtd	%xmm1, %xmm6, %xmm1
	vpaddd	%xmm6, %xmm2, %xmm6
	vmovdqa	.LCPI0_44(%rip), %xmm2          # xmm2 = [24,4,24,39]
	vpcmpgtd	%xmm6, %xmm2, %xmm2
	vpor	%xmm2, %xmm1, %xmm1
	vpmovsxdq	%xmm1, %ymm1
	vpand	.LCPI0_45(%rip), %ymm1, %ymm1
	vextracti128	$1, %ymm1, %xmm2
	vpor	%xmm2, %xmm1, %xmm1
	vpshufd	$78, %xmm1, %xmm2               # xmm2 = xmm1[2,3,0,1]
	vpor	%xmm2, %xmm1, %xmm1
	vmovq	%xmm1, %rax
	orq	1640(%rsp), %rax                # 8-byte Folded Reload
	orq	816(%rsp), %rax                 # 8-byte Folded Reload
	orq	808(%rsp), %rax                 # 8-byte Folded Reload
	orq	800(%rsp), %rax                 # 8-byte Folded Reload
	orq	792(%rsp), %rax                 # 8-byte Folded Reload
	orq	1048(%rsp), %rax                # 8-byte Folded Reload
	orq	1800(%rsp), %rax                # 8-byte Folded Reload
	orq	1792(%rsp), %rax                # 8-byte Folded Reload
	orq	1784(%rsp), %rax                # 8-byte Folded Reload
	orq	1776(%rsp), %rax                # 8-byte Folded Reload
	orq	1768(%rsp), %rax                # 8-byte Folded Reload
	orq	1760(%rsp), %rax                # 8-byte Folded Reload
	orq	1752(%rsp), %rax                # 8-byte Folded Reload
	orq	1744(%rsp), %rax                # 8-byte Folded Reload
	orq	1736(%rsp), %rax                # 8-byte Folded Reload
	orq	1728(%rsp), %rax                # 8-byte Folded Reload
	orq	1720(%rsp), %rax                # 8-byte Folded Reload
	orq	1712(%rsp), %rax                # 8-byte Folded Reload
	orq	1704(%rsp), %rax                # 8-byte Folded Reload
	orq	1696(%rsp), %rax                # 8-byte Folded Reload
	orq	1688(%rsp), %rax                # 8-byte Folded Reload
	orq	1680(%rsp), %rax                # 8-byte Folded Reload
	orq	1672(%rsp), %rax                # 8-byte Folded Reload
	orq	1664(%rsp), %rax                # 8-byte Folded Reload
	orq	1656(%rsp), %rax                # 8-byte Folded Reload
	vpslld	$31, %xmm4, %xmm1
	vpmovsxdq	%xmm1, %ymm1
	vmovapd	.LCPI0_50(%rip), %ymm2          # ymm2 = [2305843009213693952,4611686018427387904,1152921504606846976,0]
	vblendvpd	%ymm1, .LCPI0_49(%rip), %ymm2, %ymm1
	orq	1648(%rsp), %rax                # 8-byte Folded Reload
	vpslld	$31, %xmm8, %xmm2
	vpsrad	$31, %xmm2, %xmm2
	vpmovzxdq	%xmm2, %ymm2            # ymm2 = xmm2[0],zero,xmm2[1],zero,xmm2[2],zero,xmm2[3],zero
	vpand	.LCPI0_46(%rip), %ymm2, %ymm2
	vpslld	$31, %xmm9, %xmm4
	vpsrad	$31, %xmm4, %xmm4
	vpmovzxdq	%xmm4, %ymm4            # ymm4 = xmm4[0],zero,xmm4[1],zero,xmm4[2],zero,xmm4[3],zero
	vpand	.LCPI0_47(%rip), %ymm4, %ymm4
	vpslld	$31, %xmm3, %xmm3
	vpsrad	$31, %xmm3, %xmm3
	vpmovsxdq	%xmm3, %ymm3
	vpand	.LCPI0_51(%rip), %ymm3, %ymm3
	vorpd	%ymm3, %ymm1, %ymm1
	vpslld	$31, %xmm10, %xmm3
	vpsrad	$31, %xmm3, %xmm3
	vpmovzxdq	%xmm3, %ymm3            # ymm3 = xmm3[0],zero,xmm3[1],zero,xmm3[2],zero,xmm3[3],zero
	vpand	.LCPI0_48(%rip), %ymm3, %ymm3
	vpslld	$31, %xmm5, %xmm5
	vpsrad	$31, %xmm5, %xmm5
	vpmovsxdq	%xmm5, %ymm5
	vpandn	.LCPI0_52(%rip), %ymm5, %ymm5
	vpslld	$31, %xmm7, %xmm7
	vpsrad	$31, %xmm7, %xmm7
	vpmovsxdq	%xmm7, %ymm7
	vpandn	.LCPI0_53(%rip), %ymm7, %ymm7
	vpor	%ymm3, %ymm5, %ymm3
	vpor	%ymm1, %ymm7, %ymm1
	vpslld	$31, %xmm0, %xmm0
	vpmovsxdq	%xmm0, %ymm0
	vmovapd	.LCPI0_0(%rip), %xmm5           # xmm5 = [9223372036854775808,0]
	vmovapd	.LCPI0_54(%rip), %ymm7          # ymm7 = [9223934986808197120,1125899906842624,281474976710656,2251799813685248]
	vblendvpd	%ymm0, %ymm5, %ymm7, %ymm0
	vpor	%ymm1, %ymm2, %ymm1
	vorpd	%ymm3, %ymm0, %ymm0
	vpor	%ymm0, %ymm4, %ymm0
	vpor	%ymm1, %ymm0, %ymm0
	vextracti128	$1, %ymm0, %xmm1
	vpor	%xmm1, %xmm0, %xmm0
	vpshufd	$78, %xmm0, %xmm1               # xmm1 = xmm0[2,3,0,1]
	vpor	%xmm1, %xmm0, %xmm0
	vmovq	%xmm0, %rcx
	orq	%rcx, %rax
	tzcntq	%rax, %rax
	cmpl	$62, %eax
	jbe	.LBB0_336
# %bb.111:                              # %no_errors_bb144
	xorl	%r9d, %r9d
	cmpl	$4, 1056(%rsp)                  # 4-byte Folded Reload
	setne	%r9b
	xorl	%r10d, %r10d
	cmpl	$39, %ebx
	setne	%r10b
	xorl	%ecx, %ecx
	cmpl	$24, %edi
	vmovd	528(%rsp), %xmm0                # 4-byte Folded Reload
                                        # xmm0 = mem[0],zero,zero,zero
	vpinsrd	$1, 1288(%rsp), %xmm0, %xmm0    # 4-byte Folded Reload
	vpinsrd	$2, 1280(%rsp), %xmm0, %xmm0    # 4-byte Folded Reload
	vpinsrd	$3, 1248(%rsp), %xmm0, %xmm0    # 4-byte Folded Reload
	setne	%cl
	vmovd	1524(%rsp), %xmm1               # 4-byte Folded Reload
                                        # xmm1 = mem[0],zero,zero,zero
	vpinsrd	$1, 824(%rsp), %xmm1, %xmm1     # 4-byte Folded Reload
	vpinsrd	$2, 1296(%rsp), %xmm1, %xmm1    # 4-byte Folded Reload
	vpinsrd	$3, 1516(%rsp), %xmm1, %xmm1    # 4-byte Folded Reload
	xorl	%r8d, %r8d
	vmovd	872(%rsp), %xmm2                # 4-byte Folded Reload
                                        # xmm2 = mem[0],zero,zero,zero
	vpinsrd	$1, 1552(%rsp), %xmm2, %xmm2    # 4-byte Folded Reload
	vpinsrd	$2, 864(%rsp), %xmm2, %xmm2     # 4-byte Folded Reload
	vpinsrd	$3, 848(%rsp), %xmm2, %xmm2     # 4-byte Folded Reload
	cmpl	$0, 216(%rsp)                   # 4-byte Folded Reload
	vmovd	488(%rsp), %xmm3                # 4-byte Folded Reload
                                        # xmm3 = mem[0],zero,zero,zero
	vpinsrd	$1, 144(%rsp), %xmm3, %xmm3     # 4-byte Folded Reload
	vpinsrd	$2, 480(%rsp), %xmm3, %xmm3     # 4-byte Folded Reload
	vpinsrd	$3, 664(%rsp), %xmm3, %xmm3     # 4-byte Folded Reload
	setne	%r8b
	vmovd	1208(%rsp), %xmm4               # 4-byte Folded Reload
                                        # xmm4 = mem[0],zero,zero,zero
	vpinsrd	$1, 1192(%rsp), %xmm4, %xmm4    # 4-byte Folded Reload
	vpinsrd	$2, 1176(%rsp), %xmm4, %xmm4    # 4-byte Folded Reload
	vpinsrd	$3, 1496(%rsp), %xmm4, %xmm4    # 4-byte Folded Reload
	vinserti128	$1, %xmm0, %ymm1, %ymm0
	vmovd	1508(%rsp), %xmm1               # 4-byte Folded Reload
                                        # xmm1 = mem[0],zero,zero,zero
	vpinsrd	$1, 1256(%rsp), %xmm1, %xmm1    # 4-byte Folded Reload
	vpinsrd	$2, 1224(%rsp), %xmm1, %xmm1    # 4-byte Folded Reload
	vpinsrd	$3, 1240(%rsp), %xmm1, %xmm1    # 4-byte Folded Reload
	vinserti128	$1, %xmm2, %ymm3, %ymm2
	vmovd	1540(%rsp), %xmm3               # 4-byte Folded Reload
                                        # xmm3 = mem[0],zero,zero,zero
	vpinsrd	$1, 1536(%rsp), %xmm3, %xmm3    # 4-byte Folded Reload
	vpinsrd	$2, 1532(%rsp), %xmm3, %xmm3    # 4-byte Folded Reload
	vpinsrd	$3, 1528(%rsp), %xmm3, %xmm3    # 4-byte Folded Reload
	vinserti128	$1, %xmm4, %ymm1, %ymm1
	vmovd	1548(%rsp), %xmm4               # 4-byte Folded Reload
                                        # xmm4 = mem[0],zero,zero,zero
	vpinsrd	$1, 856(%rsp), %xmm4, %xmm4     # 4-byte Folded Reload
	vpinsrd	$2, 840(%rsp), %xmm4, %xmm4     # 4-byte Folded Reload
	vpinsrd	$3, 1544(%rsp), %xmm4, %xmm4    # 4-byte Folded Reload
	vinserti128	$1, %xmm3, %ymm4, %ymm3
	vpcmpeqd	.LCPI0_55(%rip), %ymm3, %ymm3
	vpmovsxdq	%xmm3, %ymm4
	vpcmpeqd	.LCPI0_56(%rip), %ymm1, %ymm1
	vpcmpeqd	.LCPI0_57(%rip), %ymm2, %ymm2
	vpmovsxdq	%xmm1, %ymm5
	vpmovsxdq	%xmm2, %ymm6
	vpcmpeqd	.LCPI0_58(%rip), %ymm0, %ymm0
	vpmovsxdq	%xmm0, %ymm7
	vextracti128	$1, %ymm3, %xmm3
	vpmovsxdq	%xmm3, %ymm3
	vextracti128	$1, %ymm1, %xmm1
	vextracti128	$1, %ymm2, %xmm2
	vpmovsxdq	%xmm2, %ymm2
	vextracti128	$1, %ymm0, %xmm0
	vpmovsxdq	%xmm0, %ymm0
	vpandn	.LCPI0_59(%rip), %ymm0, %ymm0
	vpandn	.LCPI0_60(%rip), %ymm2, %ymm2
	vpmovsxdq	%xmm1, %ymm1
	vpor	%ymm0, %ymm2, %ymm0
	vpandn	.LCPI0_61(%rip), %ymm1, %ymm1
	vpandn	.LCPI0_62(%rip), %ymm3, %ymm2
	vpor	%ymm1, %ymm2, %ymm1
	vpor	%ymm1, %ymm0, %ymm0
	vpandn	.LCPI0_63(%rip), %ymm7, %ymm1
	vpandn	.LCPI0_64(%rip), %ymm6, %ymm2
	vpandn	.LCPI0_65(%rip), %ymm5, %ymm3
	vpandn	.LCPI0_66(%rip), %ymm4, %ymm4
	vpor	%ymm1, %ymm2, %ymm1
	vmovd	1488(%rsp), %xmm2               # 4-byte Folded Reload
                                        # xmm2 = mem[0],zero,zero,zero
	vpinsrd	$1, 1152(%rsp), %xmm2, %xmm2    # 4-byte Folded Reload
	vpinsrd	$2, 1128(%rsp), %xmm2, %xmm2    # 4-byte Folded Reload
	vpinsrd	$3, 1136(%rsp), %xmm2, %xmm2    # 4-byte Folded Reload
	vpor	%ymm3, %ymm4, %ymm3
	movq	2080(%rsp), %r12                # 8-byte Reload
	vmovd	%r12d, %xmm4
	vpinsrd	$1, 1040(%rsp), %xmm4, %xmm4    # 4-byte Folded Reload
	vpinsrd	$2, 1160(%rsp), %xmm4, %xmm4    # 4-byte Folded Reload
	vpinsrd	$3, 1144(%rsp), %xmm4, %xmm4    # 4-byte Folded Reload
	vpor	%ymm3, %ymm1, %ymm1
	vmovd	%r15d, %xmm3
	vpinsrd	$1, 1484(%rsp), %xmm3, %xmm3    # 4-byte Folded Reload
	vpinsrd	$2, %esi, %xmm3, %xmm3
	vpinsrd	$3, %r13d, %xmm3, %xmm3
	vpor	%ymm0, %ymm1, %ymm0
	vmovd	1112(%rsp), %xmm1               # 4-byte Folded Reload
                                        # xmm1 = mem[0],zero,zero,zero
	vpinsrd	$1, 1120(%rsp), %xmm1, %xmm1    # 4-byte Folded Reload
	vpinsrd	$2, 1104(%rsp), %xmm1, %xmm1    # 4-byte Folded Reload
	vpinsrd	$3, %edx, %xmm1, %xmm1
	vinserti128	$1, %xmm2, %ymm4, %ymm2
	vinserti128	$1, %xmm3, %ymm1, %ymm1
	vpcmpeqd	.LCPI0_67(%rip), %ymm1, %ymm1
	vextracti128	$1, %ymm1, %xmm3
	vpmovsxdq	%xmm3, %ymm3
	vpcmpeqd	.LCPI0_68(%rip), %ymm2, %ymm2
	vextracti128	$1, %ymm2, %xmm4
	vpmovsxdq	%xmm4, %ymm4
	vpmovsxdq	%xmm1, %ymm1
	vpmovsxdq	%xmm2, %ymm2
	vpandn	.LCPI0_69(%rip), %ymm2, %ymm2
	vpandn	.LCPI0_70(%rip), %ymm1, %ymm1
	vpandn	.LCPI0_71(%rip), %ymm4, %ymm4
	vpandn	.LCPI0_72(%rip), %ymm3, %ymm3
	vpor	%ymm1, %ymm2, %ymm1
	vpor	%ymm3, %ymm4, %ymm2
	vpor	%ymm2, %ymm1, %ymm1
	xorl	%edi, %edi
	cmpl	$1, 1480(%rsp)                  # 4-byte Folded Reload
	setne	%dil
	shlq	$49, %rdi
	xorl	%ebx, %ebx
	testl	%r11d, %r11d
	setne	%bl
	shlq	$50, %rbx
	shlq	$51, %rcx
	xorl	%esi, %esi
	testl	%r14d, %r14d
	setne	%sil
	shlq	$52, %rsi
	shlq	$53, %r10
	xorl	%eax, %eax
	cmpl	$0, 1080(%rsp)                  # 4-byte Folded Reload
	setne	%al
	vextracti128	$1, %ymm0, %xmm2
	vpor	%xmm2, %xmm0, %xmm0
	vpshufd	$78, %xmm0, %xmm2               # xmm2 = xmm0[2,3,0,1]
	vpor	%xmm2, %xmm0, %xmm0
	vmovq	%xmm0, %r11
	vextracti128	$1, %ymm1, %xmm0
	vpor	%xmm0, %xmm1, %xmm0
	vpshufd	$78, %xmm0, %xmm1               # xmm1 = xmm0[2,3,0,1]
	vpor	%xmm1, %xmm0, %xmm0
	vmovq	%xmm0, %rdx
	orq	%r11, %rdx
	orq	%rbx, %rcx
	orq	%rdi, %rcx
	orq	%rsi, %rcx
	orq	%r10, %rcx
	shlq	$54, %rax
	orq	%rax, %rcx
	shlq	$55, %r9
	orq	%r9, %rcx
	orq	%r8, %rcx
	orq	%rdx, %rcx
	movabsq	$-9223372036854775808, %rax     # imm = 0x8000000000000000
	orq	%rax, %rcx
	xorl	%eax, %eax
	tzcntq	%rcx, %rax
	cmpl	$55, %eax
	movl	432(%rsp), %r11d                # 4-byte Reload
	jbe	.LBB0_338
# %bb.112:                              # %no_errors_bb208
	movslq	968(%rsp), %r12                 # 4-byte Folded Reload
	movq	152(%rsp), %rdi                 # 8-byte Reload
	movslq	%edi, %rbx
	movq	%r12, %r13
	imulq	%rbx, %r13
	movslq	976(%rsp), %r9                  # 4-byte Folded Reload
	movq	%r13, %r14
	imulq	%r9, %r14
	movslq	952(%rsp), %r8                  # 4-byte Folded Reload
	movq	%r8, 408(%rsp)                  # 8-byte Spill
	movq	88(%rsp), %r15                  # 8-byte Reload
	movslq	%r15d, %rdx
	imulq	%rdx, %r8
	movslq	960(%rsp), %rax                 # 4-byte Folded Reload
	movq	%r8, %r10
	imulq	%rax, %r10
	movslq	1320(%rsp), %rsi                # 4-byte Folded Reload
	movq	%rsi, %rcx
	negq	%rcx
	cmovlq	%rsi, %rcx
	xorl	%esi, %esi
	movq	%rcx, 1216(%rsp)                # 8-byte Spill
	cmpq	$2147483647, %rcx               # imm = 0x7FFFFFFF
	seta	%sil
	movq	%rsi, 288(%rsp)                 # 8-byte Spill
	movslq	%r11d, %r11
	movq	%r11, %rsi
	shlq	$5, %rsi
	movq	%rsi, %rcx
	negq	%rcx
	testl	%r11d, %r11d
	cmovnsq	%rsi, %rcx
	xorl	%esi, %esi
	movq	%rcx, 1208(%rsp)                # 8-byte Spill
	cmpq	$2147483647, %rcx               # imm = 0x7FFFFFFF
	seta	%sil
	movl	%esi, 488(%rsp)                 # 4-byte Spill
	movslq	512(%rsp), %rcx                 # 4-byte Folded Reload
	leaq	(,%rcx,8), %rsi
	leaq	(%rsi,%rsi,4), %r11
	movq	%r11, %rsi
	negq	%rsi
	testl	%ecx, %ecx
	cmovnsq	%r11, %rsi
	xorl	%ecx, %ecx
	movq	%rsi, 1200(%rsp)                # 8-byte Spill
	cmpq	$2147483647, %rsi               # imm = 0x7FFFFFFF
	seta	%cl
	movl	%ecx, 480(%rsp)                 # 4-byte Spill
	movslq	416(%rsp), %r11                 # 4-byte Folded Reload
	leaq	(,%r11,8), %rcx
	subq	%r11, %rcx
	movq	%rcx, %rsi
	negq	%rsi
	testl	%r11d, %r11d
	cmovnsq	%rcx, %rsi
	xorl	%ecx, %ecx
	movq	%rsi, 1192(%rsp)                # 8-byte Spill
	cmpq	$2147483647, %rsi               # imm = 0x7FFFFFFF
	seta	%cl
	movl	%ecx, 144(%rsp)                 # 4-byte Spill
	movslq	1440(%rsp), %rcx                # 4-byte Folded Reload
	imulq	$39, %rcx, %r11
	movq	%r11, %rsi
	negq	%rsi
	testl	%ecx, %ecx
	cmovnsq	%r11, %rsi
	xorl	%ecx, %ecx
	movq	%rsi, 1184(%rsp)                # 8-byte Spill
	cmpq	$2147483647, %rsi               # imm = 0x7FFFFFFF
	seta	%cl
	movl	%ecx, 216(%rsp)                 # 4-byte Spill
	movslq	424(%rsp), %rcx                 # 4-byte Folded Reload
	movq	%rcx, %rsi
	negq	%rsi
	cmovlq	%rcx, %rsi
	xorl	%ecx, %ecx
	movq	%rsi, 1168(%rsp)                # 8-byte Spill
	cmpq	$2147483647, %rsi               # imm = 0x7FFFFFFF
	seta	%cl
	movl	%ecx, 664(%rsp)                 # 4-byte Spill
	movq	%rbx, %rcx
	negq	%rcx
	testl	%edi, %edi
	cmovnsq	%rbx, %rcx
	xorl	%esi, %esi
	movq	%rcx, 1176(%rsp)                # 8-byte Spill
	cmpq	$2147483647, %rcx               # imm = 0x7FFFFFFF
	seta	%sil
	movl	%esi, 152(%rsp)                 # 4-byte Spill
	movslq	1400(%rsp), %rcx                # 4-byte Folded Reload
	imulq	%r12, %rcx
	movq	%rcx, %rsi
	negq	%rsi
	cmovlq	%rcx, %rsi
	xorl	%r11d, %r11d
	movq	%rsi, 1160(%rsp)                # 8-byte Spill
	cmpq	$2147483647, %rsi               # imm = 0x7FFFFFFF
	seta	%r11b
	xorl	%r12d, %r12d
	movq	%r13, 1248(%rsp)                # 8-byte Spill
	cmpq	$2147483647, %r13               # imm = 0x7FFFFFFF
	setg	%r12b
	movslq	1392(%rsp), %rcx                # 4-byte Folded Reload
	imulq	%r9, %rcx
	movq	%rcx, %rsi
	negq	%rsi
	cmovlq	%rcx, %rsi
	xorl	%ecx, %ecx
	movq	%rsi, 1152(%rsp)                # 8-byte Spill
	cmpq	$2147483647, %rsi               # imm = 0x7FFFFFFF
	seta	%cl
	movl	%ecx, 864(%rsp)                 # 4-byte Spill
	xorl	%esi, %esi
	movq	%r14, 1240(%rsp)                # 8-byte Spill
	cmpq	$2147483647, %r14               # imm = 0x7FFFFFFF
	setg	%sil
	movslq	632(%rsp), %rcx                 # 4-byte Folded Reload
	movq	%rcx, %rdi
	negq	%rdi
	cmovlq	%rcx, %rdi
	xorl	%ecx, %ecx
	movq	%rdi, 1144(%rsp)                # 8-byte Spill
	cmpq	$2147483647, %rdi               # imm = 0x7FFFFFFF
	seta	%cl
	movl	%ecx, 848(%rsp)                 # 4-byte Spill
	movq	%rdx, %rcx
	negq	%rcx
	testl	%r15d, %r15d
	cmovnsq	%rdx, %rcx
	xorl	%edx, %edx
	movq	%rcx, 1136(%rsp)                # 8-byte Spill
	cmpq	$2147483647, %rcx               # imm = 0x7FFFFFFF
	seta	%dl
	movl	%edx, 840(%rsp)                 # 4-byte Spill
	movslq	1344(%rsp), %rcx                # 4-byte Folded Reload
	imulq	408(%rsp), %rcx                 # 8-byte Folded Reload
	movq	%rcx, %rdx
	negq	%rdx
	cmovlq	%rcx, %rdx
	xorl	%ecx, %ecx
	movq	%rdx, 1128(%rsp)                # 8-byte Spill
	cmpq	$2147483647, %rdx               # imm = 0x7FFFFFFF
	seta	%cl
	movl	%ecx, 88(%rsp)                  # 4-byte Spill
	xorl	%ecx, %ecx
	movq	%r8, 1232(%rsp)                 # 8-byte Spill
	cmpq	$2147483647, %r8                # imm = 0x7FFFFFFF
	setg	%cl
	movl	%ecx, 872(%rsp)                 # 4-byte Spill
	movslq	36(%rsp), %rdx                  # 4-byte Folded Reload
	movq	%rdx, %rcx
	movq	%rdx, 408(%rsp)                 # 8-byte Spill
	imulq	%rdx, %rax
	movq	%rax, %rcx
	negq	%rcx
	cmovlq	%rax, %rcx
	xorl	%eax, %eax
	movq	%rcx, 1120(%rsp)                # 8-byte Spill
	cmpq	$2147483647, %rcx               # imm = 0x7FFFFFFF
	seta	%al
	movl	%eax, 968(%rsp)                 # 4-byte Spill
	xorl	%eax, %eax
	movq	%r10, 1224(%rsp)                # 8-byte Spill
	cmpq	$2147483647, %r10               # imm = 0x7FFFFFFF
	setg	%al
	movl	%eax, 856(%rsp)                 # 4-byte Spill
	movslq	1312(%rsp), %rax                # 4-byte Folded Reload
	movq	%rax, %rcx
	negq	%rcx
	cmovlq	%rax, %rcx
	xorl	%eax, %eax
	movq	%rcx, 1112(%rsp)                # 8-byte Spill
	cmpq	$2147483647, %rcx               # imm = 0x7FFFFFFF
	seta	%al
	movl	%eax, 952(%rsp)                 # 4-byte Spill
	movq	72(%rsp), %rcx                  # 8-byte Reload
	movslq	%ecx, %rax
	movq	%rax, %rdx
	negq	%rdx
	testl	%ecx, %ecx
	cmovnsq	%rax, %rdx
	xorl	%eax, %eax
	movq	%rdx, 1104(%rsp)                # 8-byte Spill
	cmpq	$2147483647, %rdx               # imm = 0x7FFFFFFF
	seta	%al
	movl	%eax, 832(%rsp)                 # 4-byte Spill
	movslq	2056(%rsp), %rax                # 4-byte Folded Reload
	leaq	(,%rax,4), %rcx
	movq	%rcx, %rdx
	negq	%rdx
	testl	%eax, %eax
	cmovnsq	%rcx, %rdx
	movq	%rdx, 1096(%rsp)                # 8-byte Spill
	cmpq	$2147483647, %rdx               # imm = 0x7FFFFFFF
	movl	$0, %eax
	seta	%al
	shlq	$19, %rax
	movq	%rax, 72(%rsp)                  # 8-byte Spill
	movslq	1560(%rsp), %rax                # 4-byte Folded Reload
	movq	%rax, %rcx
	shlq	$5, %rcx
	movq	%rcx, %rdx
	negq	%rdx
	testl	%eax, %eax
	cmovnsq	%rcx, %rdx
	xorl	%ebx, %ebx
	movq	%rdx, 1088(%rsp)                # 8-byte Spill
	cmpq	$2147483647, %rdx               # imm = 0x7FFFFFFF
	seta	%bl
	shlq	$20, %rbx
	movslq	2040(%rsp), %rax                # 4-byte Folded Reload
	leaq	(,%rax,4), %rcx
	movq	%rcx, %rdx
	negq	%rdx
	testl	%eax, %eax
	cmovnsq	%rcx, %rdx
	movq	%rdx, 1080(%rsp)                # 8-byte Spill
	cmpq	$2147483647, %rdx               # imm = 0x7FFFFFFF
	movl	$0, %eax
	seta	%al
	shlq	$21, %rax
	movq	%rax, 976(%rsp)                 # 8-byte Spill
	movq	2000(%rsp), %rcx                # 8-byte Reload
	leaq	(,%rcx,4), %rax
	movq	%rax, %rdx
	negq	%rdx
	testl	%ecx, %ecx
	cmovnsq	%rax, %rdx
	movq	%rdx, 1072(%rsp)                # 8-byte Spill
	cmpq	$2147483647, %rdx               # imm = 0x7FFFFFFF
	movl	$0, %eax
	seta	%al
	shlq	$22, %rax
	movq	%rax, 960(%rsp)                 # 8-byte Spill
	movslq	520(%rsp), %rax                 # 4-byte Folded Reload
	leaq	(,%rax,8), %rcx
	leaq	(%rcx,%rcx,4), %rcx
	movq	%rcx, %rdx
	negq	%rdx
	testl	%eax, %eax
	cmovnsq	%rcx, %rdx
	movq	%rdx, 1064(%rsp)                # 8-byte Spill
	cmpq	$2147483647, %rdx               # imm = 0x7FFFFFFF
	movl	$0, %eax
	seta	%al
	shlq	$23, %rax
	movq	%rax, 824(%rsp)                 # 8-byte Spill
	movslq	1992(%rsp), %rax                # 4-byte Folded Reload
	leaq	(,%rax,8), %rcx
	subq	%rax, %rcx
	movq	%rcx, %rdx
	negq	%rdx
	testl	%eax, %eax
	cmovnsq	%rcx, %rdx
	movq	%rdx, 1056(%rsp)                # 8-byte Spill
	cmpq	$2147483647, %rdx               # imm = 0x7FFFFFFF
	movl	$0, %eax
	seta	%al
	shlq	$24, %rax
	movq	%rax, 528(%rsp)                 # 8-byte Spill
	movslq	1336(%rsp), %rax                # 4-byte Folded Reload
	leaq	(,%rax,4), %rcx
	movq	%rcx, %rdx
	negq	%rdx
	testl	%eax, %eax
	cmovnsq	%rcx, %rdx
	movq	%rdx, 816(%rsp)                 # 8-byte Spill
	cmpq	$2147483647, %rdx               # imm = 0x7FFFFFFF
	movl	$0, %eax
	seta	%al
	shlq	$25, %rax
	movq	%rax, 1296(%rsp)                # 8-byte Spill
	movslq	2024(%rsp), %rax                # 4-byte Folded Reload
	leaq	(,%rax,4), %rcx
	movq	%rcx, %rdx
	negq	%rdx
	testl	%eax, %eax
	cmovnsq	%rcx, %rdx
	movq	%rdx, 808(%rsp)                 # 8-byte Spill
	cmpq	$2147483647, %rdx               # imm = 0x7FFFFFFF
	movl	$0, %eax
	seta	%al
	shlq	$26, %rax
	movq	%rax, 1288(%rsp)                # 8-byte Spill
	movslq	1556(%rsp), %rax                # 4-byte Folded Reload
	imulq	$39, %rax, %rcx
	movq	%rcx, %rdx
	negq	%rdx
	testl	%eax, %eax
	cmovnsq	%rcx, %rdx
	movq	%rdx, 800(%rsp)                 # 8-byte Spill
	cmpq	$2147483647, %rdx               # imm = 0x7FFFFFFF
	movl	$0, %eax
	seta	%al
	shlq	$27, %rax
	movq	%rax, 1280(%rsp)                # 8-byte Spill
	movslq	1424(%rsp), %rax                # 4-byte Folded Reload
	leaq	(,%rax,4), %rcx
	movq	%rcx, %rdx
	negq	%rdx
	testl	%eax, %eax
	cmovnsq	%rcx, %rdx
	xorl	%eax, %eax
	movq	%rdx, 792(%rsp)                 # 8-byte Spill
	cmpq	$2147483647, %rdx               # imm = 0x7FFFFFFF
	seta	%al
	movq	%rax, %rcx
	movq	56(%rsp), %rdx                  # 8-byte Reload
	shlq	$37, %rdx
	movabsq	$274877906944, %rax             # imm = 0x4000000000
	andq	%rax, %rdx
	movq	%rdx, 56(%rsp)                  # 8-byte Spill
	movq	200(%rsp), %rdx                 # 8-byte Reload
	shlq	$38, %rdx
	movabsq	$549755813888, %rax             # imm = 0x8000000000
	andq	%rax, %rdx
	movq	%rdx, 200(%rsp)                 # 8-byte Spill
	movq	2184(%rsp), %rdi                # 8-byte Reload
	shlq	$45, %rdi
	movabsq	$70368744177664, %rax           # imm = 0x400000000000
	andq	%rax, %rdi
	vmovd	%r12d, %xmm0
	vpinsrb	$4, %r11d, %xmm0, %xmm0
	vpinsrb	$8, %esi, %xmm0, %xmm0
	shlq	$28, %rcx
	movq	%rcx, 1272(%rsp)                # 8-byte Spill
	movq	2208(%rsp), %r10                # 8-byte Reload
	andl	$2, %r10d
	shlq	$28, %r10
	movq	2200(%rsp), %r14                # 8-byte Reload
	andl	$2, %r14d
	shlq	$29, %r14
	movq	2192(%rsp), %r12                # 8-byte Reload
	andl	$2, %r12d
	shlq	$30, %r12
	movq	96(%rsp), %rax                  # 8-byte Reload
	andl	$2, %eax
	shlq	$31, %rax
	movq	%rax, 96(%rsp)                  # 8-byte Spill
	movq	576(%rsp), %rax                 # 8-byte Reload
	andl	$2, %eax
	shlq	$32, %rax
	movq	%rax, 576(%rsp)                 # 8-byte Spill
	movq	128(%rsp), %rax                 # 8-byte Reload
	andl	$2, %eax
	shlq	$33, %rax
	movq	%rax, 128(%rsp)                 # 8-byte Spill
	movq	8(%rsp), %rax                   # 8-byte Reload
	andl	$2, %eax
	shlq	$34, %rax
	movq	%rax, 8(%rsp)                   # 8-byte Spill
	movq	896(%rsp), %rax                 # 8-byte Reload
	andl	$2, %eax
	shlq	$35, %rax
	movq	%rax, 896(%rsp)                 # 8-byte Spill
	movq	64(%rsp), %rax                  # 8-byte Reload
	andl	$2, %eax
	shlq	$36, %rax
	movq	%rax, 64(%rsp)                  # 8-byte Spill
	movq	496(%rsp), %rax                 # 8-byte Reload
	andl	$2, %eax
	shlq	$39, %rax
	movq	%rax, 496(%rsp)                 # 8-byte Spill
	movq	536(%rsp), %rax                 # 8-byte Reload
	andl	$2, %eax
	shlq	$40, %rax
	movq	%rax, 536(%rsp)                 # 8-byte Spill
	movq	888(%rsp), %rax                 # 8-byte Reload
	andl	$2, %eax
	shlq	$41, %rax
	movq	%rax, 888(%rsp)                 # 8-byte Spill
	movq	624(%rsp), %rax                 # 8-byte Reload
	andl	$2, %eax
	shlq	$42, %rax
	movq	%rax, 624(%rsp)                 # 8-byte Spill
	movq	880(%rsp), %rax                 # 8-byte Reload
	andl	$2, %eax
	shlq	$43, %rax
	movq	%rax, 880(%rsp)                 # 8-byte Spill
	movq	696(%rsp), %rax                 # 8-byte Reload
	andl	$2, %eax
	shlq	$44, %rax
	movq	%rax, 696(%rsp)                 # 8-byte Spill
	movq	688(%rsp), %rax                 # 8-byte Reload
	andl	$2, %eax
	shlq	$46, %rax
	movq	%rax, 688(%rsp)                 # 8-byte Spill
	movq	680(%rsp), %rax                 # 8-byte Reload
	andl	$2, %eax
	shlq	$47, %rax
	movq	%rax, 680(%rsp)                 # 8-byte Spill
	xorl	%r13d, %r13d
	cmpq	$0, 704(%rsp)                   # 8-byte Folded Reload
	sete	%r13b
	xorl	%r15d, %r15d
	cmpq	$0, 2072(%rsp)                  # 8-byte Folded Reload
	sete	%r15b
	xorl	%eax, %eax
	cmpq	$0, 560(%rsp)                   # 8-byte Folded Reload
	sete	%al
	movl	%eax, 1256(%rsp)                # 4-byte Spill
	xorl	%eax, %eax
	cmpq	$0, 1432(%rsp)                  # 8-byte Folded Reload
	sete	%al
	movl	%eax, 1264(%rsp)                # 4-byte Spill
	xorl	%r11d, %r11d
	cmpq	$0, 552(%rsp)                   # 8-byte Folded Reload
	sete	%r11b
	xorl	%ecx, %ecx
	cmpq	$0, 1456(%rsp)                  # 8-byte Folded Reload
	sete	%cl
	xorl	%r8d, %r8d
	cmpq	$0, 1448(%rsp)                  # 8-byte Folded Reload
	sete	%r8b
	xorl	%r9d, %r9d
	cmpq	$0, 992(%rsp)                   # 8-byte Folded Reload
	sete	%r9b
	xorl	%esi, %esi
	cmpq	$0, 1304(%rsp)                  # 8-byte Folded Reload
	sete	%sil
	xorl	%edx, %edx
	cmpq	$0, 1408(%rsp)                  # 8-byte Folded Reload
	sete	%dl
	xorl	%eax, %eax
	cmpq	$0, 1808(%rsp)                  # 8-byte Folded Reload
	sete	%al
	vpinsrb	$12, %eax, %xmm0, %xmm0
	vmovd	488(%rsp), %xmm1                # 4-byte Folded Reload
                                        # xmm1 = mem[0],zero,zero,zero
	vpinsrb	$4, %r11d, %xmm1, %xmm1
	vpinsrb	$8, 480(%rsp), %xmm1, %xmm1     # 4-byte Folded Reload
	vpinsrb	$12, %ecx, %xmm1, %xmm1
	vmovd	864(%rsp), %xmm2                # 4-byte Folded Reload
                                        # xmm2 = mem[0],zero,zero,zero
	vpinsrb	$4, 848(%rsp), %xmm2, %xmm2     # 4-byte Folded Reload
	xorl	%eax, %eax
	cmpq	$0, 80(%rsp)                    # 8-byte Folded Reload
	sete	%al
	vpinsrb	$8, %eax, %xmm2, %xmm2
	vpinsrb	$12, 840(%rsp), %xmm2, %xmm2    # 4-byte Folded Reload
	vmovd	664(%rsp), %xmm3                # 4-byte Folded Reload
                                        # xmm3 = mem[0],zero,zero,zero
	vpinsrb	$4, %esi, %xmm3, %xmm3
	vpinsrb	$8, %edx, %xmm3, %xmm3
	vpinsrb	$12, 152(%rsp), %xmm3, %xmm3    # 4-byte Folded Reload
	vmovd	968(%rsp), %xmm4                # 4-byte Folded Reload
                                        # xmm4 = mem[0],zero,zero,zero
	vpinsrb	$4, 952(%rsp), %xmm4, %xmm4     # 4-byte Folded Reload
	xorl	%eax, %eax
	cmpq	$0, 1472(%rsp)                  # 8-byte Folded Reload
	sete	%al
	xorl	%ecx, %ecx
	cmpq	$0, 712(%rsp)                   # 8-byte Folded Reload
	sete	%cl
	vpinsrb	$8, %ecx, %xmm4, %xmm4
	vpinsrb	$12, 832(%rsp), %xmm4, %xmm4    # 4-byte Folded Reload
	vmovd	872(%rsp), %xmm5                # 4-byte Folded Reload
                                        # xmm5 = mem[0],zero,zero,zero
	vpinsrb	$4, 88(%rsp), %xmm5, %xmm5      # 4-byte Folded Reload
	vpinsrb	$8, 856(%rsp), %xmm5, %xmm5     # 4-byte Folded Reload
	vpinsrb	$12, %eax, %xmm5, %xmm5
	vmovd	144(%rsp), %xmm6                # 4-byte Folded Reload
                                        # xmm6 = mem[0],zero,zero,zero
	vpinsrb	$4, %r8d, %xmm6, %xmm6
	vpinsrb	$8, %r9d, %xmm6, %xmm6
	vpinsrb	$12, 216(%rsp), %xmm6, %xmm6    # 4-byte Folded Reload
	vmovd	%r13d, %xmm7
	vpinsrb	$4, %r15d, %xmm7, %xmm7
	vpinsrb	$8, 1256(%rsp), %xmm7, %xmm7    # 4-byte Folded Reload
	vpinsrb	$12, 1264(%rsp), %xmm7, %xmm7   # 4-byte Folded Reload
	orq	72(%rsp), %rbx                  # 8-byte Folded Reload
	orq	976(%rsp), %rbx                 # 8-byte Folded Reload
	orq	960(%rsp), %rbx                 # 8-byte Folded Reload
	orq	824(%rsp), %rbx                 # 8-byte Folded Reload
	orq	528(%rsp), %rbx                 # 8-byte Folded Reload
	orq	1296(%rsp), %rbx                # 8-byte Folded Reload
	orq	1288(%rsp), %rbx                # 8-byte Folded Reload
	orq	1280(%rsp), %rbx                # 8-byte Folded Reload
	orq	1272(%rsp), %rbx                # 8-byte Folded Reload
	orq	%r10, %rbx
	orq	%r14, %rbx
	orq	288(%rsp), %rbx                 # 8-byte Folded Reload
	orq	%r12, %rbx
	orq	96(%rsp), %rbx                  # 8-byte Folded Reload
	orq	576(%rsp), %rbx                 # 8-byte Folded Reload
	orq	128(%rsp), %rbx                 # 8-byte Folded Reload
	orq	8(%rsp), %rbx                   # 8-byte Folded Reload
	orq	896(%rsp), %rbx                 # 8-byte Folded Reload
	orq	64(%rsp), %rbx                  # 8-byte Folded Reload
	orq	56(%rsp), %rbx                  # 8-byte Folded Reload
	orq	200(%rsp), %rbx                 # 8-byte Folded Reload
	orq	496(%rsp), %rbx                 # 8-byte Folded Reload
	orq	536(%rsp), %rbx                 # 8-byte Folded Reload
	orq	888(%rsp), %rbx                 # 8-byte Folded Reload
	orq	624(%rsp), %rbx                 # 8-byte Folded Reload
	vpslld	$31, %xmm1, %xmm1
	vpsrad	$31, %xmm1, %xmm1
	vpmovsxdq	%xmm1, %ymm1
	vpand	.LCPI0_74(%rip), %ymm1, %ymm1
	orq	880(%rsp), %rbx                 # 8-byte Folded Reload
	vpslld	$31, %xmm2, %xmm2
	vpsrad	$31, %xmm2, %xmm2
	vpmovsxdq	%xmm2, %ymm2
	vpand	.LCPI0_75(%rip), %ymm2, %ymm2
	vpslld	$31, %xmm3, %xmm3
	vpsrad	$31, %xmm3, %xmm3
	vpmovsxdq	%xmm3, %ymm3
	vpand	.LCPI0_76(%rip), %ymm3, %ymm3
	vpslld	$31, %xmm4, %xmm4
	vpsrad	$31, %xmm4, %xmm4
	vpmovsxdq	%xmm4, %ymm4
	vpand	.LCPI0_77(%rip), %ymm4, %ymm4
	vpor	%ymm2, %ymm1, %ymm1
	vpor	%ymm4, %ymm3, %ymm2
	vpslld	$31, %xmm7, %xmm3
	vpmovsxdq	%xmm3, %ymm3
	vmovapd	.LCPI0_0(%rip), %xmm4           # xmm4 = [9223372036854775808,0]
	vblendvpd	%ymm3, .LCPI0_80(%rip), %ymm4, %ymm3
	vpor	%ymm2, %ymm1, %ymm1
	vpslld	$31, %xmm0, %xmm0
	vpsrad	$31, %xmm0, %xmm0
	vpmovsxdq	%xmm0, %ymm0
	vpand	.LCPI0_73(%rip), %ymm0, %ymm0
	vpslld	$31, %xmm5, %xmm2
	vpsrad	$31, %xmm2, %xmm2
	vpmovsxdq	%xmm2, %ymm2
	vpand	.LCPI0_78(%rip), %ymm2, %ymm2
	vpslld	$31, %xmm6, %xmm4
	vpsrad	$31, %xmm4, %xmm4
	vpmovsxdq	%xmm4, %ymm4
	vpand	.LCPI0_79(%rip), %ymm4, %ymm4
	vpor	%ymm2, %ymm4, %ymm2
	vorpd	%ymm0, %ymm3, %ymm0
	vorpd	%ymm2, %ymm0, %ymm0
	vorpd	%ymm1, %ymm0, %ymm0
	vextractf128	$1, %ymm0, %xmm1
	vorpd	%xmm1, %xmm0, %xmm0
	vpermilps	$78, %xmm0, %xmm1       # xmm1 = xmm0[2,3,0,1]
	vorpd	%xmm1, %xmm0, %xmm0
	vmovq	%xmm0, %rax
	orq	%rax, %rbx
	orq	696(%rsp), %rdi                 # 8-byte Folded Reload
	orq	688(%rsp), %rdi                 # 8-byte Folded Reload
	orq	680(%rsp), %rdi                 # 8-byte Folded Reload
	orq	%rbx, %rdi
	xorl	%eax, %eax
	tzcntq	%rdi, %rax
	cmpl	$62, %eax
	jbe	.LBB0_340
# %bb.113:                              # %no_errors_bb265
	vmovdqa	%xmm15, 128(%rsp)               # 16-byte Spill
	vmovdqa	%xmm14, 576(%rsp)               # 16-byte Spill
	vmovdqa	%xmm13, 288(%rsp)               # 16-byte Spill
	xorl	%eax, %eax
	cmpq	$0, 2064(%rsp)                  # 8-byte Folded Reload
	sete	%al
	xorl	%ecx, %ecx
	cmpq	$0, 2048(%rsp)                  # 8-byte Folded Reload
	sete	%cl
	xorl	%edx, %edx
	cmpq	$0, 2008(%rsp)                  # 8-byte Folded Reload
	sete	%dl
	xorl	%esi, %esi
	cmpq	$0, 1416(%rsp)                  # 8-byte Folded Reload
	sete	%sil
	xorl	%edi, %edi
	cmpq	$0, 2032(%rsp)                  # 8-byte Folded Reload
	sete	%dil
	shlq	$4, %rdi
	xorl	%ebx, %ebx
	cmpq	$0, 2016(%rsp)                  # 8-byte Folded Reload
	sete	%bl
	shlq	$5, %rbx
	leaq	(%rax,%rcx,2), %rax
	leaq	(%rax,%rdx,4), %rax
	leaq	(%rax,%rsi,8), %rax
	orq	%rdi, %rax
	orq	%rbx, %rax
	movabsq	$-9223372036854775808, %rcx     # imm = 0x8000000000000000
	orq	%rcx, %rax
	tzcntq	%rax, %rax
	cmpl	$5, %eax
	movq	648(%rsp), %rcx                 # 8-byte Reload
	movq	16(%rbp), %r15
	movq	160(%rsp), %r13                 # 8-byte Reload
	jbe	.LBB0_342
# %bb.114:                              # %"produce squashed_head1_filter"
	movl	512(%rsp), %eax                 # 4-byte Reload
	movl	%eax, 6448(%rsp)
	movl	416(%rsp), %eax                 # 4-byte Reload
	movl	%eax, 6452(%rsp)
	movq	552(%rsp), %rax                 # 8-byte Reload
	movq	%rax, 6456(%rsp)
	movq	%rcx, 6464(%rsp)
	leaq	7328(%rsp), %rax
	movq	%rax, 6472(%rsp)
	movq	$0, 6480(%rsp)
	leaq	train_cost_model.par_for.squashed_head1_filter.s0.s.s.s(%rip), %rsi
	leaq	6448(%rsp), %r8
	xorl	%edi, %edi
	xorl	%edx, %edx
	movl	$16, %ecx
	vzeroupper
	callq	halide_do_par_for@PLT
	testl	%eax, %eax
	movq	40(%rsp), %rbx                  # 8-byte Reload
	jne	.LBB0_344
# %bb.115:                              # %"assert succeeded337"
	movl	%r13d, %r14d
	movq	%r14, 536(%rsp)                 # 8-byte Spill
	movq	%r14, %rdx
	shlq	$5, %rdx
	cmpl	$67108864, %r13d                # imm = 0x4000000
	jae	.LBB0_345
# %bb.116:                              # %"assert succeeded339"
	movq	%rdx, 8(%rsp)                   # 8-byte Spill
	movq	%rdx, %rsi
	orq	$4, %rsi
	xorl	%edi, %edi
	callq	halide_malloc@PLT
	testq	%rax, %rax
	je	.LBB0_346
# %bb.117:                              # %"assert succeeded341"
	movq	%rax, %r14
	movq	1432(%rsp), %rax                # 8-byte Reload
	movq	%rax, 7112(%rsp)
	movq	%r15, 7120(%rsp)
	movq	%r14, 7128(%rsp)
	movq	$0, 7136(%rsp)
	leaq	train_cost_model.par_for.head1_conv.s0.w(%rip), %rsi
	xorl	%r15d, %r15d
	leaq	7112(%rsp), %r8
	xorl	%edi, %edi
	xorl	%edx, %edx
	movl	%r13d, %ecx
	callq	halide_do_par_for@PLT
	testl	%eax, %eax
	movq	%r14, 896(%rsp)                 # 8-byte Spill
	jne	.LBB0_348
# %bb.118:                              # %"consume squashed_head1_filter"
	movq	544(%rsp), %rax                 # 8-byte Reload
	movl	1392(%rsp), %edi                # 4-byte Reload
	imull	%edi, %eax
	movq	504(%rsp), %rcx                 # 8-byte Reload
	movq	1400(%rsp), %rsi                # 8-byte Reload
	imull	%esi, %ecx
	movq	%rcx, 504(%rsp)                 # 8-byte Spill
	movq	1328(%rsp), %rdx                # 8-byte Reload
	addl	%edx, %ecx
	movq	%rax, 544(%rsp)                 # 8-byte Spill
	addl	%eax, %ecx
	movl	%esi, 7144(%rsp)
	movl	%edi, 7148(%rsp)
	movl	%ecx, 960(%rsp)                 # 4-byte Spill
	movl	%ecx, 7152(%rsp)
	movq	%r14, 7160(%rsp)
	movq	$0, 7168(%rsp)
	movq	1408(%rsp), %rax                # 8-byte Reload
	movq	%rax, 7176(%rsp)
	movq	440(%rsp), %rax                 # 8-byte Reload
	movq	%rax, 7184(%rsp)
	leaq	7328(%rsp), %rax
	movq	%rax, 7192(%rsp)
	movq	$0, 7200(%rsp)
	leaq	train_cost_model.par_for.head1_conv.s1.w(%rip), %rsi
	xorl	%r15d, %r15d
	leaq	7144(%rsp), %r8
	xorl	%edi, %edi
	xorl	%edx, %edx
	movl	%r13d, %ecx
	callq	halide_do_par_for@PLT
	testl	%eax, %eax
	jne	.LBB0_348
# %bb.119:                              # %"assert succeeded345"
	vmovdqa	2096(%rsp), %xmm0               # 16-byte Reload
	vmovd	%xmm0, %r10d
	movl	%r10d, %r9d
	sarl	$3, %r9d
	cmpl	$3, %ebx
	movl	$2, %r11d
	cmovll	%ebx, %r11d
	testl	%r11d, %r11d
	movl	$1, %r8d
	cmovlel	%r8d, %r11d
	vmovdqa	576(%rsp), %xmm0                # 16-byte Reload
	vmovd	%xmm0, %eax
	movq	%rax, 56(%rsp)                  # 8-byte Spill
	addl	$39, %eax
	movl	%eax, %esi
	sarl	$31, %esi
	xorl	%esi, %eax
	imulq	$1717986919, %rax, %rcx         # imm = 0x66666667
	shrq	$36, %rcx
	xorl	%esi, %ecx
	leal	1(%r13), %edi
	movl	%edi, 680(%rsp)                 # 4-byte Spill
	andl	$2147483646, %edi               # imm = 0x7FFFFFFE
	movl	%edi, %eax
	imull	%ecx, %eax
	movq	%rax, 496(%rsp)                 # 8-byte Spill
	decl	%eax
	movl	%eax, %r15d
	sarl	$31, %r15d
	movq	%rbx, %r12
	xorl	%ebx, %ebx
	testl	%ecx, %ecx
	sete	%bl
	subl	%r15d, %eax
	cltd
	movq	%rcx, 200(%rsp)                 # 8-byte Spill
	addl	%ebx, %ecx
	idivl	%ecx
	movl	%esi, %ecx
	notl	%ecx
	subl	%esi, %ecx
	andl	%r15d, %ecx
	addl	%eax, %ecx
	decl	%ebx
	andl	%ecx, %ebx
	decl	%edi
	cmpl	%ebx, %edi
	cmovgl	%ebx, %edi
	andl	$-2, %edi
	addl	%r11d, %edi
	cmpl	$2, %edi
	cmovgel	%r8d, %edi
	cmpl	%r12d, %edi
	cmovll	%r12d, %edi
	cmpl	$8, %r12d
	movl	$7, %ecx
	cmovll	%r12d, %ecx
	movl	$2147483648, %ebx               # imm = 0x80000000
	testl	%ecx, %ecx
	cmovlel	%r8d, %ecx
	leal	-1(%r13), %r14d
	movl	%r14d, %eax
	sarl	$31, %eax
	movl	%eax, %edx
	xorl	%r14d, %edx
	leaq	306783379(%rbx), %rsi
	imulq	%rdx, %rsi
	shrq	$34, %rsi
	xorl	%eax, %esi
	leal	(,%rsi,8), %eax
	subl	%esi, %eax
	addl	%ecx, %eax
	cmpl	%r13d, %eax
	cmovgl	%r13d, %eax
	cmpl	%eax, %edi
	cmovgel	%edi, %eax
	cmpl	$5, %r9d
	movl	$4, %ecx
	cmovll	%r9d, %ecx
	movl	%r10d, %edx
	sarl	$31, %edx
	xorl	%edx, %r10d
	imulq	$1717986919, %r10, %rsi         # imm = 0x66666667
	shrq	$36, %rsi
	xorl	%edx, %esi
	leal	(%rsi,%rsi,4), %edx
	vmovdqa	128(%rsp), %xmm0                # 16-byte Reload
	vmovd	%xmm0, %r15d
	leal	(%r15,%rdx,8), %edx
	vmovdqa	2112(%rsp), %xmm0               # 16-byte Reload
	vmovd	%xmm0, %esi
	cmpl	%edx, %esi
	cmovgl	%edx, %esi
	vmovdqa	2128(%rsp), %xmm0               # 16-byte Reload
	vmovd	%xmm0, %edx
	leal	(%rdx,%rcx,8), %r13d
	addl	%esi, %r13d
	vmovdqa	288(%rsp), %xmm0                # 16-byte Reload
	vmovd	%xmm0, %ecx
	cmpl	%ecx, %r13d
	movl	%ecx, 96(%rsp)                  # 4-byte Spill
	cmovgl	%ecx, %r13d
	movq	352(%rsp), %rcx                 # 8-byte Reload
	cmpl	%ecx, %r13d
	movl	%ecx, %r12d
	cmovgel	%r13d, %r12d
	movl	24(%rsp), %ecx                  # 4-byte Reload
	cmpl	%ecx, %r12d
	cmovll	%ecx, %r12d
	subl	%r15d, %r12d
	movl	%r12d, %ecx
	sarl	$31, %ecx
	andnl	%r12d, %ecx, %ecx
	movl	%eax, %edx
	sarl	$31, %edx
	andnl	%eax, %edx, %eax
	imulq	$156, %rcx, %rsi
	movq	%rsi, %rdx
	imulq	%rax, %rdx
	cmpq	$2147483647, %rdx               # imm = 0x7FFFFFFF
	ja	.LBB0_321
# %bb.120:                              # %"assert succeeded345"
	movl	%ecx, %edi
	shll	$2, %edi
	imulq	$39, %rdi, %rdi
	shrq	$32, %rdi
	shrq	$30, %rcx
	imulq	$39, %rcx, %rcx
	addq	%rdi, %rcx
	movl	%esi, %esi
	imulq	%rax, %rsi
	shrq	$32, %rsi
	imulq	%rax, %rcx
	addq	%rsi, %rcx
	movabsq	$4393751543808, %rax            # imm = 0x3FF00000000
	andq	%rcx, %rax
	jne	.LBB0_321
# %bb.121:                              # %"assert succeeded347"
	addq	$4, %rdx
	xorl	%edi, %edi
	movq	%rdx, %rsi
	callq	halide_malloc@PLT
	testq	%rax, %rax
	movq	320(%rsp), %r8                  # 8-byte Reload
	movq	1344(%rsp), %r9                 # 8-byte Reload
	je	.LBB0_347
# %bb.122:                              # %"assert succeeded349"
	movl	%r14d, 152(%rsp)                # 4-byte Spill
	leaq	306783379(%rbx), %rcx
	movq	536(%rsp), %rdx                 # 8-byte Reload
	imulq	%rcx, %rdx
	shrq	$31, %rdx
	andl	$-8, %edx
	movq	160(%rsp), %r10                 # 8-byte Reload
	leal	6(%r10), %ebx
	imulq	%rcx, %rbx
	shrq	$31, %rbx
	andl	$-8, %ebx
	movl	36(%rsp), %r11d                 # 4-byte Reload
	movq	208(%rsp), %rcx                 # 8-byte Reload
	imull	%r11d, %ecx
	movq	48(%rsp), %rdi                  # 8-byte Reload
	imull	%r9d, %edi
	movq	272(%rsp), %rsi                 # 8-byte Reload
	movq	%rdi, 48(%rsp)                  # 8-byte Spill
	addl	%edi, %esi
	movq	%rcx, 208(%rsp)                 # 8-byte Spill
	movq	%rsi, 688(%rsp)                 # 8-byte Spill
	leal	(%rsi,%rcx), %ecx
	movl	%r12d, 888(%rsp)                # 4-byte Spill
	movl	%r12d, 2256(%rsp)
	movl	%r9d, 2260(%rsp)
	movl	%r11d, 2264(%rsp)
	movq	%rdx, 72(%rsp)                  # 8-byte Spill
	movl	%edx, 2268(%rsp)
	movq	56(%rsp), %rdx                  # 8-byte Reload
	movl	%edx, 2272(%rsp)
	movl	%ecx, 88(%rsp)                  # 4-byte Spill
	movl	%ecx, 2276(%rsp)
	movl	%edx, 2280(%rsp)
	movl	%r10d, 2284(%rsp)
	movl	%r15d, 2288(%rsp)
	movl	96(%rsp), %ecx                  # 4-byte Reload
	movl	%ecx, 2292(%rsp)
	movq	%rax, 64(%rsp)                  # 8-byte Spill
	movq	%rax, 2296(%rsp)
	movq	$0, 2304(%rsp)
	movq	80(%rsp), %rax                  # 8-byte Reload
	movq	%rax, 2312(%rsp)
	movq	%r8, 2320(%rsp)
	leaq	train_cost_model.par_for.normalized_schedule_features.s0.c.c.c(%rip), %rsi
	leaq	2256(%rsp), %r8
	xorl	%edi, %edi
	xorl	%edx, %edx
	movq	%rbx, 696(%rsp)                 # 8-byte Spill
	movl	%ebx, %ecx
	callq	halide_do_par_for@PLT
	movl	$2147483648, %r9d               # imm = 0x80000000
	testl	%eax, %eax
	jne	.LBB0_349
# %bb.123:                              # %"assert succeeded351"
	movq	%r15, %r14
	movl	24(%rsp), %eax                  # 4-byte Reload
	cmpl	%eax, %r13d
	cmovll	%eax, %r13d
	movq	352(%rsp), %rsi                 # 8-byte Reload
	cmpl	$6, %esi
	movl	$5, %eax
	cmovll	%esi, %eax
	movl	1824(%rsp), %edi                # 4-byte Reload
	movl	%edi, %ecx
	sarl	$31, %ecx
	movl	%ecx, %edx
	xorl	%edi, %edx
	imulq	$1717986919, %rdx, %rdx         # imm = 0x66666667
	shrq	$33, %rdx
	xorl	%ecx, %edx
	leal	(%rdx,%rdx,4), %ecx
	addl	%eax, %ecx
	cmpl	%esi, %ecx
	cmovgl	%esi, %ecx
	cmpl	%ecx, %r13d
	cmovgel	%r13d, %ecx
	testl	%ecx, %ecx
	movl	$1, %ebx
	cmovgl	%ecx, %ebx
	subl	%r14d, %ebx
	movl	%ebx, %eax
	sarl	$31, %eax
	andnl	%ebx, %eax, %eax
	movq	8(%rsp), %rcx                   # 8-byte Reload
	leaq	(%rcx,%rcx,2), %rdi
	movq	%rdi, %rdx
	imulq	%rax, %rdx
	cmpq	%r9, %rdx
	jae	.LBB0_322
# %bb.124:                              # %"assert succeeded351"
	movabsq	$545460846592, %r8              # imm = 0x7F00000000
	movq	%rdi, %r15
	shrq	$32, %r15
	movl	%edi, %esi
	movq	%rsi, %rcx
	imulq	%rax, %rcx
	shrq	$32, %rcx
	imulq	%r15, %rax
	addq	%rcx, %rax
	andq	%r8, %rax
	jne	.LBB0_322
# %bb.125:                              # %"assert succeeded353"
	movq	%rsi, 144(%rsp)                 # 8-byte Spill
	movq	%rdi, 624(%rsp)                 # 8-byte Spill
	orq	$4, %rdx
	xorl	%edi, %edi
	movq	%rdx, %rsi
	callq	halide_malloc@PLT
	testq	%rax, %rax
	movq	160(%rsp), %rdx                 # 8-byte Reload
	movq	496(%rsp), %r12                 # 8-byte Reload
	movq	200(%rsp), %rsi                 # 8-byte Reload
	je	.LBB0_350
# %bb.126:                              # %"assert succeeded355"
	movq	%rax, %rcx
	movl	%ebx, 6128(%rsp)
	movl	%r14d, 6132(%rsp)
	movl	%esi, 6136(%rsp)
	movl	%edx, 6140(%rsp)
	movl	96(%rsp), %r13d                 # 4-byte Reload
	movl	%r13d, 6144(%rsp)
	movq	1456(%rsp), %rax                # 8-byte Reload
	movq	%rax, 6152(%rsp)
	movq	32(%rbp), %rax
	movq	%rax, 6160(%rsp)
	movq	%rcx, 6168(%rsp)
	movq	$0, 6176(%rsp)
	movq	%rcx, 8(%rsp)                   # 8-byte Spill
	leaq	train_cost_model.par_for.head2_conv.s0.n.n.n(%rip), %rsi
	leaq	6128(%rsp), %r8
	xorl	%edi, %edi
	xorl	%edx, %edx
	movl	%r12d, %ecx
	callq	halide_do_par_for@PLT
	testl	%eax, %eax
	jne	.LBB0_352
# %bb.127:                              # %"consume normalized_schedule_features"
	movq	%r12, %rcx
	movl	%ebx, 880(%rsp)                 # 4-byte Spill
	movl	%ebx, 6488(%rsp)
	movl	1440(%rsp), %eax                # 4-byte Reload
	movl	%eax, 6492(%rsp)
	movl	888(%rsp), %eax                 # 4-byte Reload
	movl	%eax, 6496(%rsp)
	movl	%r14d, 6500(%rsp)
	movq	200(%rsp), %rax                 # 8-byte Reload
	movl	%eax, 6504(%rsp)
	movq	160(%rsp), %rax                 # 8-byte Reload
	movl	%eax, 6508(%rsp)
	movl	%r13d, 6512(%rsp)
	movq	8(%rsp), %rax                   # 8-byte Reload
	movq	%rax, 6520(%rsp)
	movq	$0, 6528(%rsp)
	movq	1448(%rsp), %rax                # 8-byte Reload
	movq	%rax, 6536(%rsp)
	movq	24(%rbp), %rax
	movq	%rax, 6544(%rsp)
	movq	64(%rsp), %rax                  # 8-byte Reload
	movq	%rax, 6552(%rsp)
	movq	$0, 6560(%rsp)
	leaq	train_cost_model.par_for.head2_conv.s1.n.n.n(%rip), %rsi
	leaq	6488(%rsp), %r8
	xorl	%edi, %edi
	xorl	%edx, %edx
                                        # kill: def $ecx killed $ecx killed $rcx
	callq	halide_do_par_for@PLT
	testl	%eax, %eax
	jne	.LBB0_353
# %bb.128:                              # %"assert succeeded359"
	movl	1944(%rsp), %eax                # 4-byte Reload
	testl	%eax, %eax
	movl	$1, %edi
	cmovgl	%eax, %edi
	movl	%edi, %esi
	subl	%r14d, %esi
	leal	-1(%rsi), %eax
	andl	$-8, %eax
	addl	%r14d, %eax
	leal	-1(%rdi), %ecx
	cmpl	%eax, %ecx
	cmovlel	%ecx, %eax
	cmpl	$9, %esi
	movl	$8, %r13d
	cmovll	%esi, %r13d
	addl	%eax, %r13d
	cmpl	%edi, %r13d
	cmovgl	%edi, %r13d
	movq	352(%rsp), %rax                 # 8-byte Reload
	cmpl	%eax, %r13d
	movl	%eax, %ebx
	cmovgel	%r13d, %ebx
	movl	24(%rsp), %eax                  # 4-byte Reload
	cmpl	%eax, %ebx
	cmovll	%eax, %ebx
	subl	%r14d, %ebx
	movl	%ebx, %eax
	sarl	$31, %eax
	andnl	%ebx, %eax, %eax
	movq	624(%rsp), %rdx                 # 8-byte Reload
	imulq	%rax, %rdx
	movl	$2147483648, %ecx               # imm = 0x80000000
	cmpq	%rcx, %rdx
	jae	.LBB0_323
# %bb.129:                              # %"assert succeeded359"
	movq	144(%rsp), %rcx                 # 8-byte Reload
	imulq	%rax, %rcx
	shrq	$32, %rcx
	imulq	%rax, %r15
	addq	%rcx, %r15
	movabsq	$545460846592, %rax             # imm = 0x7F00000000
	andq	%rax, %r15
	jne	.LBB0_323
# %bb.130:                              # %"assert succeeded361"
	movq	%rsi, 144(%rsp)                 # 8-byte Spill
	movq	%rdi, 24(%rsp)                  # 8-byte Spill
	movl	$2147483648, %r15d              # imm = 0x80000000
	orq	$4, %rdx
	xorl	%edi, %edi
	movq	%rdx, %rsi
	callq	halide_malloc@PLT
	testq	%rax, %rax
	movl	96(%rsp), %edx                  # 4-byte Reload
	je	.LBB0_354
# %bb.131:                              # %"assert succeeded363"
	movl	880(%rsp), %ecx                 # 4-byte Reload
	movl	%ecx, 2400(%rsp)
	movl	%ebx, 624(%rsp)                 # 4-byte Spill
	movl	%ebx, 2404(%rsp)
	movq	72(%rsp), %rcx                  # 8-byte Reload
	movl	%ecx, 2408(%rsp)
	movq	56(%rsp), %rcx                  # 8-byte Reload
	movl	%ecx, 2412(%rsp)
	movl	%ecx, 2416(%rsp)
	movq	160(%rsp), %rcx                 # 8-byte Reload
	movl	%ecx, 2420(%rsp)
	movq	%r14, 496(%rsp)                 # 8-byte Spill
	movl	%r14d, 2424(%rsp)
	movl	%edx, 2428(%rsp)
	movq	8(%rsp), %rcx                   # 8-byte Reload
	movq	%rcx, 2432(%rsp)
	movq	$0, 2440(%rsp)
	movq	%rax, 56(%rsp)                  # 8-byte Spill
	movq	%rax, 2448(%rsp)
	movq	$0, 2456(%rsp)
	leaq	train_cost_model.par_for.head2_relu.s0.c.c.c(%rip), %rsi
	leaq	2400(%rsp), %r8
	xorl	%edi, %edi
	xorl	%edx, %edx
	movq	696(%rsp), %rcx                 # 8-byte Reload
                                        # kill: def $ecx killed $ecx killed $rcx
	callq	halide_do_par_for@PLT
	testl	%eax, %eax
	movq	352(%rsp), %rsi                 # 8-byte Reload
	jne	.LBB0_356
# %bb.132:                              # %"assert succeeded365"
	movl	1616(%rsp), %ecx                # 4-byte Reload
	cmpl	%r13d, %ecx
	movl	%r13d, %eax
	cmovgel	%ecx, %eax
	movl	1824(%rsp), %ecx                # 4-byte Reload
	andl	$-8, %ecx
	movq	448(%rsp), %rdx                 # 8-byte Reload
	addl	%ecx, %edx
	cmpl	%esi, %edx
	cmovgl	%esi, %edx
	cmpl	%edx, %eax
	movq	%rdx, 448(%rsp)                 # 8-byte Spill
	cmovll	%edx, %eax
	movl	984(%rsp), %ecx                 # 4-byte Reload
	cmpl	%ecx, %eax
	cmovll	%ecx, %eax
	movl	1464(%rsp), %ecx                # 4-byte Reload
	cmpl	%ecx, %eax
	cmovll	%ecx, %eax
	movl	1564(%rsp), %ecx                # 4-byte Reload
	cmpl	%ecx, %eax
	cmovll	%ecx, %eax
	cmpl	%r13d, %eax
	cmovll	%r13d, %eax
	testl	%eax, %eax
	movl	$1, %esi
	cmovgl	%eax, %esi
	movl	%esi, %ecx
	movl	1568(%rsp), %r12d               # 4-byte Reload
	subl	%r12d, %ecx
	movl	%ecx, %eax
	sarl	$31, %eax
	movl	%ecx, 200(%rsp)                 # 4-byte Spill
	andnl	%ecx, %eax, %eax
	movq	536(%rsp), %rcx                 # 8-byte Reload
	movq	%rcx, %rdx
	shlq	$7, %rdx
	movq	%rdx, %rbx
	imulq	%rax, %rbx
	cmpq	%r15, %rbx
	jae	.LBB0_324
# %bb.133:                              # %"assert succeeded365"
	movabsq	$270582939648, %rdi             # imm = 0x3F00000000
	shrq	$25, %rcx
	movl	%edx, %edx
	imulq	%rax, %rdx
	shrq	$32, %rdx
	imulq	%rax, %rcx
	addq	%rdx, %rcx
	andq	%rdi, %rcx
	jne	.LBB0_324
# %bb.134:                              # %"assert succeeded367"
	movl	%esi, 696(%rsp)                 # 4-byte Spill
	orq	$4, %rbx
	xorl	%edi, %edi
	movq	%rbx, %rsi
	callq	halide_malloc@PLT
	testq	%rax, %rax
	movq	40(%rbp), %rdx
	movq	160(%rsp), %r14                 # 8-byte Reload
	je	.LBB0_357
# %bb.135:                              # %"assert succeeded369"
	movq	%rax, %r15
	movl	%r14d, %eax
	andl	$2147483644, %eax               # imm = 0x7FFFFFFC
	movl	200(%rsp), %ecx                 # 4-byte Reload
	movl	%ecx, 6024(%rsp)
	movl	432(%rsp), %ecx                 # 4-byte Reload
	movl	%ecx, 6028(%rsp)
	movl	%eax, 6032(%rsp)
	movl	152(%rsp), %eax                 # 4-byte Reload
	sarl	%eax
	movq	144(%rsp), %r13                 # 8-byte Reload
	movl	%r13d, 6036(%rsp)
	movl	%r12d, 6040(%rsp)
	movl	%r13d, 6044(%rsp)
	movl	%eax, 6048(%rsp)
	leal	3(%r14), %ecx
	andl	$2147483644, %ecx               # imm = 0x7FFFFFFC
	movl	%r14d, 6052(%rsp)
	movq	496(%rsp), %rax                 # 8-byte Reload
	movl	%eax, 6056(%rsp)
	movq	24(%rsp), %rax                  # 8-byte Reload
	movl	%eax, 6060(%rsp)
	movq	704(%rsp), %rax                 # 8-byte Reload
	movq	%rax, 6064(%rsp)
	movq	48(%rbp), %rax
	movq	%rax, 6072(%rsp)
	movq	%r15, 6080(%rsp)
	movq	$0, 6088(%rsp)
	movq	560(%rsp), %rbx                 # 8-byte Reload
	movq	%rbx, 6096(%rsp)
	movq	%rdx, 6104(%rsp)
	movq	896(%rsp), %rax                 # 8-byte Reload
	movq	%rax, 6112(%rsp)
	movq	$0, 6120(%rsp)
	leaq	train_cost_model.par_for.conv1_stage2.s0.c.c.c(%rip), %rsi
	leaq	6024(%rsp), %r8
	xorl	%edi, %edi
	xorl	%edx, %edx
	callq	halide_do_par_for@PLT
	movl	%r12d, %ecx
	movl	%eax, %r12d
	testl	%eax, %eax
	movq	%r15, %rax
	movq	%r15, 72(%rsp)                  # 8-byte Spill
	jne	.LBB0_359
# %bb.136:                              # %"consume head2_relu"
	leal	(%r14,%r14), %eax
	andl	$-4, %eax
	movl	200(%rsp), %edx                 # 4-byte Reload
	movl	%edx, 3560(%rsp)
	movl	432(%rsp), %edx                 # 4-byte Reload
	movl	%edx, 3564(%rsp)
	movl	624(%rsp), %edx                 # 4-byte Reload
	movl	%edx, 3568(%rsp)
	movl	%eax, 3572(%rsp)
	movl	%r13d, 3576(%rsp)
	movl	%ecx, 3580(%rsp)
	movl	%r13d, 3584(%rsp)
	movl	%r14d, 3588(%rsp)
	movq	496(%rsp), %rax                 # 8-byte Reload
	movl	%eax, 3592(%rsp)
	movq	24(%rsp), %rax                  # 8-byte Reload
	movl	%eax, 3596(%rsp)
	movl	680(%rsp), %ecx                 # 4-byte Reload
	shrl	%ecx
	shll	$2, %ecx
	movq	%r15, 3600(%rsp)
	movq	$0, 3608(%rsp)
	movq	%rbx, 3616(%rsp)
	movq	40(%rbp), %rax
	movq	%rax, 3624(%rsp)
	movq	56(%rsp), %rax                  # 8-byte Reload
	movq	%rax, 3632(%rsp)
	movq	$0, 3640(%rsp)
	leaq	train_cost_model.par_for.conv1_stage2.s1.c.c.c(%rip), %rsi
	xorl	%r15d, %r15d
	leaq	3560(%rsp), %r8
	xorl	%edi, %edi
	xorl	%edx, %edx
	callq	halide_do_par_for@PLT
	testl	%eax, %eax
	jne	.LBB0_362
# %bb.137:                              # %"assert succeeded373"
	movq	1856(%rsp), %rcx                # 8-byte Reload
	addl	672(%rsp), %ecx                 # 4-byte Folded Reload
	movq	352(%rsp), %rax                 # 8-byte Reload
	cmpl	%eax, %ecx
	cmovll	%eax, %ecx
	movq	2216(%rsp), %rax                # 8-byte Reload
	cmpl	%eax, %ecx
	cmovll	%eax, %ecx
	movl	1616(%rsp), %eax                # 4-byte Reload
	cmpl	%eax, %ecx
	cmovll	%eax, %ecx
	testl	%ecx, %ecx
	movl	$1, %eax
	cmovgl	%ecx, %eax
	vmovdqa	128(%rsp), %xmm0                # 16-byte Reload
	vpextrd	$1, %xmm0, %r12d
	subl	%r12d, %eax
	movl	%eax, %ecx
	sarl	$31, %ecx
	andnl	%eax, %ecx, %eax
	leaq	(,%rax,4), %rdx
	cmpl	$536870912, %eax                # imm = 0x20000000
	jae	.LBB0_360
# %bb.138:                              # %"assert succeeded375"
	addq	$4, %rdx
	xorl	%edi, %edi
	movq	%rdx, %rsi
	callq	halide_malloc@PLT
	testq	%rax, %rax
	je	.LBB0_361
# %bb.139:                              # %"assert succeeded377"
	movq	%rax, %r15
	vmovaps	576(%rsp), %xmm0                # 16-byte Reload
	vextractps	$1, %xmm0, %ebx
	leal	7(%rbx), %r14d
	sarl	$3, %ebx
	movl	%ebx, 4384(%rsp)
	movl	%r12d, 4388(%rsp)
	vmovaps	288(%rsp), %xmm0                # 16-byte Reload
	vextractps	$1, %xmm0, 4392(%rsp)
	sarl	$3, %r14d
	movq	%rax, 4400(%rsp)
	movq	$0, 4408(%rsp)
	leaq	train_cost_model.par_for.f7.s0.n.n(%rip), %rsi
	leaq	4384(%rsp), %r8
	xorl	%edi, %edi
	xorl	%edx, %edx
	movl	%r14d, %ecx
	callq	halide_do_par_for@PLT
	testl	%eax, %eax
	movq	%r15, 128(%rsp)                 # 8-byte Spill
	jne	.LBB0_325
# %bb.140:                              # %"consume conv1_stage2"
	vcvtsi2ssl	1948(%rsp), %xmm1, %xmm0 # 4-byte Folded Reload
	movl	200(%rsp), %eax                 # 4-byte Reload
	movl	%eax, 3648(%rsp)
	movq	40(%rsp), %r13                  # 8-byte Reload
	movl	%r13d, 3652(%rsp)
	movq	1344(%rsp), %rax                # 8-byte Reload
	movl	%eax, 3656(%rsp)
	movl	36(%rsp), %eax                  # 4-byte Reload
	movl	%eax, 3660(%rsp)
	movl	%ebx, 3664(%rsp)
	vmovapd	288(%rsp), %xmm1                # 16-byte Reload
	vextractps	$1, %xmm1, %eax
	movl	%r12d, 536(%rsp)                # 4-byte Spill
	movl	%r12d, 3668(%rsp)
	movl	88(%rsp), %ecx                  # 4-byte Reload
	movl	%ecx, 3672(%rsp)
	movl	1568(%rsp), %ecx                # 4-byte Reload
	movl	%ecx, 3676(%rsp)
	vmovaps	%xmm0, 1616(%rsp)               # 16-byte Spill
	vmovss	%xmm0, 3680(%rsp)
	movl	%eax, 3684(%rsp)
	movq	72(%rsp), %rax                  # 8-byte Reload
	movq	%rax, 3688(%rsp)
	movq	$0, 3696(%rsp)
	movq	%r15, 3704(%rsp)
	movq	$0, 3712(%rsp)
	movq	80(%rsp), %rax                  # 8-byte Reload
	movq	%rax, 3720(%rsp)
	movq	320(%rsp), %rax                 # 8-byte Reload
	movq	%rax, 3728(%rsp)
	leaq	train_cost_model.par_for.f7.s1.n.n(%rip), %rsi
	leaq	3648(%rsp), %r8
	xorl	%edi, %edi
	xorl	%edx, %edx
	movl	%r14d, %ecx
	callq	halide_do_par_for@PLT
	testl	%eax, %eax
	jne	.LBB0_325
# %bb.141:                              # %"produce sum$1_1_d_def__"
	movl	$1065353216, 7328(%rsp)         # imm = 0x3F800000
	movq	352(%rsp), %r8                  # 8-byte Reload
	leal	7(%r8), %esi
	movl	%esi, %edx
	sarl	$3, %edx
	leal	1(%r13), %r12d
	sarl	%r12d
	imull	%edx, %r12d
	leal	-1(%r12), %eax
	movl	%eax, %edi
	sarl	$31, %edi
	xorl	%ecx, %ecx
	testl	%edx, %edx
	sete	%cl
	subl	%edi, %eax
	movq	%rdx, 576(%rsp)                 # 8-byte Spill
	leal	(%rdx,%rcx), %ebx
	cltd
	idivl	%ebx
	movq	%r8, %rbx
	sarl	$31, %esi
	movl	%esi, %edx
	notl	%edx
	subl	%esi, %edx
	andl	%edi, %edx
	addl	%eax, %edx
	decl	%ecx
	andl	%edx, %ecx
	testl	%ebx, %ebx
	movl	%ecx, %r15d
	movl	$0, %eax
	cmovgl	%eax, %r15d
	cmovlel	%eax, %ecx
	leal	(%r15,%r15), %r14d
	movl	%r13d, %eax
	subl	%r14d, %eax
	cmpl	$3, %eax
	movl	$2, %edx
	cmovll	%eax, %edx
	leal	-1(%r13), %eax
	sarl	%eax
	cmpl	%ecx, %eax
	cmovgl	%ecx, %eax
	leal	(%rdx,%rax,2), %eax
	cmpl	%r13d, %eax
	cmovgl	%r13d, %eax
	subl	%r14d, %eax
	movl	224(%rsp), %edx                 # 4-byte Reload
	movl	%edx, %ecx
	sarl	$31, %ecx
	andnl	%edx, %ecx, %ecx
	movl	%eax, %edx
	sarl	$31, %edx
	andnl	%eax, %edx, %eax
	movq	%rax, %rsi
	imulq	%rcx, %rsi
	leaq	(,%rcx,4), %rdx
	cmpq	$536870911, %rsi                # imm = 0x1FFFFFFF
	ja	.LBB0_326
# %bb.142:                              # %"produce sum$1_1_d_def__"
	movabsq	$4294967296, %r8                # imm = 0x100000000
	shrq	$30, %rcx
	movl	%edx, %edi
	imulq	%rax, %rdi
	shrq	$32, %rdi
	imulq	%rax, %rcx
	addq	%rdi, %rcx
	andq	%r8, %rcx
	jne	.LBB0_326
# %bb.143:                              # %"assert succeeded383"
	leaq	4(,%rsi,4), %rsi
	xorl	%edi, %edi
	callq	halide_malloc@PLT
	testq	%rax, %rax
	movq	128(%rsp), %rdi                 # 8-byte Reload
	movl	536(%rsp), %edx                 # 4-byte Reload
	je	.LBB0_363
# %bb.144:                              # %"assert succeeded385"
	movq	%rax, %r13
	movl	64(%rbp), %ecx
	cmpl	%ecx, %ebx
	cmovlel	1824(%rsp), %ecx                # 4-byte Folded Reload
	movl	%ecx, %eax
	sarl	$31, %eax
	andnl	%ecx, %eax, %esi
	movq	640(%rsp), %rax                 # 8-byte Reload
	subl	%eax, %esi
	movl	%ebx, 6352(%rsp)
	movl	224(%rsp), %ecx                 # 4-byte Reload
	movl	%ecx, 6356(%rsp)
	movl	%r14d, 6360(%rsp)
	movq	40(%rsp), %rbx                  # 8-byte Reload
	movl	%ebx, 6364(%rsp)
	movq	576(%rsp), %rcx                 # 8-byte Reload
	movl	%ecx, 6368(%rsp)
	movl	%esi, 848(%rsp)                 # 4-byte Spill
	movl	%esi, 6372(%rsp)
	movl	%edx, 6376(%rsp)
	movl	%eax, 6380(%rsp)
	movq	%r13, 6384(%rsp)
	movq	$0, 6392(%rsp)
	movq	%rdi, 6400(%rsp)
	movq	$0, 6408(%rsp)
	leaq	7328(%rsp), %rax
	movq	%rax, 6416(%rsp)
	movq	$0, 6424(%rsp)
	movq	712(%rsp), %rax                 # 8-byte Reload
	movq	%rax, 6432(%rsp)
	movq	72(%rbp), %rax
	movq	%rax, 6440(%rsp)
	leaq	train_cost_model.par_for.f6_0_d_def__.s0.n.n.n(%rip), %rsi
	leaq	6352(%rsp), %r8
	xorl	%edi, %edi
	xorl	%edx, %edx
	movq	%r12, 288(%rsp)                 # 8-byte Spill
	movl	%r12d, %ecx
	callq	halide_do_par_for@PLT
	testl	%eax, %eax
	jne	.LBB0_365
# %bb.145:                              # %"assert succeeded387"
	movl	%r15d, %eax
	sarl	$31, %eax
	andl	%r15d, %eax
	addl	%eax, %eax
	movl	%ebx, %ecx
	subl	%eax, %ecx
	movq	448(%rsp), %rdx                 # 8-byte Reload
	movl	%edx, %eax
	sarl	$31, %eax
	andnl	%edx, %eax, %edi
	movl	%ecx, %eax
	sarl	$31, %eax
	andnl	%ecx, %eax, %eax
	movq	%rdi, %rsi
	imulq	%rax, %rsi
	shlq	$7, %rsi
	movq	%rax, %rdx
	shlq	$7, %rdx
	movl	$2147483648, %ecx               # imm = 0x80000000
	cmpq	%rcx, %rsi
	jae	.LBB0_327
# %bb.146:                              # %"assert succeeded387"
	shrq	$25, %rax
	movl	%edx, %ecx
	imulq	%rdi, %rcx
	shrq	$32, %rcx
	imulq	%rdi, %rax
	addq	%rcx, %rax
	movabsq	$270582939648, %rcx             # imm = 0x3F00000000
	andq	%rcx, %rax
	jne	.LBB0_327
# %bb.147:                              # %"assert succeeded389"
	movq	%rbx, %r15
	movq	%rdi, 528(%rsp)                 # 8-byte Spill
	orq	$4, %rsi
	xorl	%edi, %edi
	callq	halide_malloc@PLT
	movq	%rax, 96(%rsp)                  # 8-byte Spill
	testq	%rax, %rax
	movq	576(%rsp), %rcx                 # 8-byte Reload
	movq	288(%rsp), %rbx                 # 8-byte Reload
	je	.LBB0_367
# %bb.148:                              # %"assert succeeded391"
	movl	%r14d, %eax
	sarl	$31, %r14d
	movl	%eax, 160(%rsp)                 # 4-byte Spill
	andl	%eax, %r14d
	movq	352(%rsp), %rax                 # 8-byte Reload
	movl	%eax, 2800(%rsp)
	movl	%r15d, 2804(%rsp)
	movq	448(%rsp), %rax                 # 8-byte Reload
	movl	%eax, 2808(%rsp)
	movl	%ecx, 2812(%rsp)
	movl	%r14d, 2816(%rsp)
	movq	96(%rsp), %rax                  # 8-byte Reload
	movq	%rax, 2824(%rsp)
	movq	$0, 2832(%rsp)
	leaq	train_cost_model.par_for.relu1_0_d_def__.s0.n.n.n(%rip), %rsi
	leaq	2800(%rsp), %r8
	xorl	%edi, %edi
	xorl	%edx, %edx
	movl	%ebx, %ecx
	callq	halide_do_par_for@PLT
	testl	%eax, %eax
	jne	.LBB0_314
# %bb.149:                              # %"consume f6_0_d_def__"
	movq	%rbx, %rcx
	movq	1344(%rsp), %r15                # 8-byte Reload
	leal	(%r15,%r15,4), %eax
	leal	(%r15,%rax,4), %eax
	movl	%eax, %edi
	movq	352(%rsp), %rsi                 # 8-byte Reload
	addl	%esi, %eax
	subl	688(%rsp), %eax                 # 4-byte Folded Reload
	subl	272(%rsp), %edi                 # 4-byte Folded Reload
	subl	48(%rsp), %edi                  # 4-byte Folded Reload
	movq	208(%rsp), %rdx                 # 8-byte Reload
	subl	%edx, %edi
	movl	%esi, 3736(%rsp)
	movl	224(%rsp), %esi                 # 4-byte Reload
	movl	%esi, 3740(%rsp)
	movl	160(%rsp), %esi                 # 4-byte Reload
	movl	%esi, 3744(%rsp)
	movq	40(%rsp), %rsi                  # 8-byte Reload
	movl	%esi, 3748(%rsp)
	movq	448(%rsp), %rsi                 # 8-byte Reload
	movl	%esi, 3752(%rsp)
	movl	36(%rsp), %esi                  # 4-byte Reload
	movl	%esi, 3756(%rsp)
	movq	576(%rsp), %rbx                 # 8-byte Reload
	movl	%ebx, 3760(%rsp)
	movl	%r14d, 3764(%rsp)
	movl	%edi, 3768(%rsp)
	subl	%edx, %eax
	movl	%eax, 3772(%rsp)
	movq	%r13, 3776(%rsp)
	movq	$0, 3784(%rsp)
	movq	96(%rsp), %rax                  # 8-byte Reload
	movq	%rax, 3792(%rsp)
	movq	$0, 3800(%rsp)
	movq	80(%rsp), %rax                  # 8-byte Reload
	movq	%rax, 3808(%rsp)
	movq	320(%rsp), %rax                 # 8-byte Reload
	movq	%rax, 3816(%rsp)
	leaq	train_cost_model.par_for.relu1_0_d_def__.s6.n.n.n(%rip), %rsi
	leaq	3736(%rsp), %r8
	xorl	%edi, %edi
	xorl	%edx, %edx
                                        # kill: def $ecx killed $ecx killed $rcx
	callq	halide_do_par_for@PLT
	testl	%eax, %eax
	movq	%r13, 24(%rsp)                  # 8-byte Spill
	jne	.LBB0_315
# %bb.150:                              # %"consume f6_0_d_def__396"
	movq	%rbx, %rcx
	leal	(%r15,%r15,8), %ebx
	movq	352(%rsp), %rax                 # 8-byte Reload
	movl	%eax, 4416(%rsp)
	movl	224(%rsp), %eax                 # 4-byte Reload
	movl	%eax, 4420(%rsp)
	movl	160(%rsp), %eax                 # 4-byte Reload
	movl	%eax, 4424(%rsp)
	movq	40(%rsp), %rax                  # 8-byte Reload
	movl	%eax, 4428(%rsp)
	movq	448(%rsp), %rax                 # 8-byte Reload
	movl	%eax, 4432(%rsp)
	movl	%r15d, 4436(%rsp)
	movl	36(%rsp), %eax                  # 4-byte Reload
	movl	%eax, 4440(%rsp)
	movl	%ecx, 4444(%rsp)
	movl	%r14d, 4448(%rsp)
	movl	88(%rsp), %r13d                 # 4-byte Reload
	movl	%r13d, 4452(%rsp)
	movl	%ebx, 4456(%rsp)
	movq	24(%rsp), %rax                  # 8-byte Reload
	movq	%rax, 4464(%rsp)
	movq	$0, 4472(%rsp)
	movq	96(%rsp), %rax                  # 8-byte Reload
	movq	%rax, 4480(%rsp)
	movq	$0, 4488(%rsp)
	movq	80(%rsp), %rax                  # 8-byte Reload
	movq	%rax, 4496(%rsp)
	movq	320(%rsp), %rax                 # 8-byte Reload
	movq	%rax, 4504(%rsp)
	leaq	train_cost_model.par_for.relu1_0_d_def__.s7.n.n.n(%rip), %rsi
	leaq	4416(%rsp), %r8
	xorl	%edi, %edi
	xorl	%edx, %edx
	movq	288(%rsp), %rcx                 # 8-byte Reload
                                        # kill: def $ecx killed $ecx killed $rcx
	callq	halide_do_par_for@PLT
	testl	%eax, %eax
	jne	.LBB0_313
# %bb.151:                              # %"consume f6_0_d_def__399"
	movq	352(%rsp), %rax                 # 8-byte Reload
	movl	%eax, 4512(%rsp)
	movl	224(%rsp), %eax                 # 4-byte Reload
	movl	%eax, 4516(%rsp)
	movl	160(%rsp), %eax                 # 4-byte Reload
	movl	%eax, 4520(%rsp)
	movq	40(%rsp), %rax                  # 8-byte Reload
	movl	%eax, 4524(%rsp)
	movq	448(%rsp), %rax                 # 8-byte Reload
	movl	%eax, 4528(%rsp)
	movl	%r15d, 4532(%rsp)
	movl	36(%rsp), %eax                  # 4-byte Reload
	movl	%eax, 4536(%rsp)
	movq	576(%rsp), %rax                 # 8-byte Reload
	movl	%eax, 4540(%rsp)
	movl	%r14d, 4544(%rsp)
	movl	%r13d, 4548(%rsp)
	movl	%ebx, 152(%rsp)                 # 4-byte Spill
	movl	%ebx, 4552(%rsp)
	movq	24(%rsp), %rax                  # 8-byte Reload
	movq	%rax, 4560(%rsp)
	movq	$0, 4568(%rsp)
	movq	96(%rsp), %r15                  # 8-byte Reload
	movq	%r15, 4576(%rsp)
	movq	$0, 4584(%rsp)
	movq	80(%rsp), %rax                  # 8-byte Reload
	movq	%rax, 4592(%rsp)
	movq	320(%rsp), %rax                 # 8-byte Reload
	movq	%rax, 4600(%rsp)
	leaq	train_cost_model.par_for.relu1_0_d_def__.s8.n.n.n(%rip), %rsi
	leaq	4512(%rsp), %r8
	xorl	%edi, %edi
	xorl	%edx, %edx
	movq	288(%rsp), %rbx                 # 8-byte Reload
	movl	%ebx, %ecx
	callq	halide_do_par_for@PLT
	testl	%eax, %eax
	jne	.LBB0_313
# %bb.152:                              # %"consume f6_0_d_def__402"
	movq	%r15, %rsi
	movq	%rbx, %r9
	movq	352(%rsp), %rcx                 # 8-byte Reload
	movl	%ecx, %eax
	subl	272(%rsp), %eax                 # 4-byte Folded Reload
	subl	48(%rsp), %eax                  # 4-byte Folded Reload
	subl	208(%rsp), %eax                 # 4-byte Folded Reload
	movl	%ecx, 3824(%rsp)
	movl	224(%rsp), %ecx                 # 4-byte Reload
	movl	%ecx, 3828(%rsp)
	movl	160(%rsp), %ecx                 # 4-byte Reload
	movl	%ecx, 3832(%rsp)
	movq	40(%rsp), %rcx                  # 8-byte Reload
	movl	%ecx, 3836(%rsp)
	movq	448(%rsp), %rcx                 # 8-byte Reload
	movl	%ecx, 3840(%rsp)
	movl	36(%rsp), %ecx                  # 4-byte Reload
	movl	%ecx, 3844(%rsp)
	movq	576(%rsp), %r15                 # 8-byte Reload
	movl	%r15d, 3848(%rsp)
	movl	%r14d, 3852(%rsp)
	movl	%r13d, 3856(%rsp)
	movl	%eax, 3860(%rsp)
	movq	24(%rsp), %rax                  # 8-byte Reload
	movq	%rax, 3864(%rsp)
	movq	$0, 3872(%rsp)
	movq	%rsi, 3880(%rsp)
	movq	$0, 3888(%rsp)
	movq	80(%rsp), %rax                  # 8-byte Reload
	movq	%rax, 3896(%rsp)
	movq	320(%rsp), %rax                 # 8-byte Reload
	movq	%rax, 3904(%rsp)
	movq	%rsi, %rbx
	leaq	train_cost_model.par_for.relu1_0_d_def__.s9.n.n.n(%rip), %rsi
	leaq	3824(%rsp), %r8
	xorl	%edi, %edi
	xorl	%edx, %edx
	movl	%r9d, %ecx
	callq	halide_do_par_for@PLT
	testl	%eax, %eax
	movl	%r14d, 48(%rsp)                 # 4-byte Spill
	jne	.LBB0_313
# %bb.153:                              # %"consume f6_0_d_def__405"
	movq	%rbx, %rsi
	movq	%r15, %rcx
	movq	1344(%rsp), %r13                # 8-byte Reload
	leal	(%r13,%r13), %eax
	movq	%rax, 480(%rsp)                 # 8-byte Spill
	leal	(%rax,%rax,4), %r14d
	movl	%r13d, %r15d
	shll	$5, %r15d
	leal	(%r15,%r13,2), %eax
	movq	352(%rsp), %rdx                 # 8-byte Reload
	movl	%edx, 2840(%rsp)
	movl	224(%rsp), %edx                 # 4-byte Reload
	movl	%edx, 2844(%rsp)
	movl	160(%rsp), %edx                 # 4-byte Reload
	movl	%edx, 2848(%rsp)
	movq	40(%rsp), %rdx                  # 8-byte Reload
	movl	%edx, 2852(%rsp)
	movq	448(%rsp), %rdx                 # 8-byte Reload
	movl	%edx, 2856(%rsp)
	movl	36(%rsp), %edx                  # 4-byte Reload
	movl	%edx, 2860(%rsp)
	movl	%ecx, 2864(%rsp)
	movl	48(%rsp), %edx                  # 4-byte Reload
	movl	%edx, 2868(%rsp)
	movl	88(%rsp), %edx                  # 4-byte Reload
	movl	%edx, 2872(%rsp)
	movl	152(%rsp), %ebx                 # 4-byte Reload
	movl	%ebx, 2876(%rsp)
	movl	%r14d, 2880(%rsp)
	movl	%eax, 680(%rsp)                 # 4-byte Spill
	movl	%eax, 2884(%rsp)
	movq	24(%rsp), %rax                  # 8-byte Reload
	movq	%rax, 2888(%rsp)
	movq	$0, 2896(%rsp)
	movq	%rsi, 2904(%rsp)
	movq	$0, 2912(%rsp)
	movq	80(%rsp), %rax                  # 8-byte Reload
	movq	%rax, 2920(%rsp)
	movq	320(%rsp), %rax                 # 8-byte Reload
	movq	%rax, 2928(%rsp)
	leaq	train_cost_model.par_for.relu1_0_d_def__.s10.n.n.n(%rip), %rsi
	leaq	2840(%rsp), %r8
	xorl	%edi, %edi
	xorl	%edx, %edx
	movq	288(%rsp), %rcx                 # 8-byte Reload
                                        # kill: def $ecx killed $ecx killed $rcx
	callq	halide_do_par_for@PLT
	testl	%eax, %eax
	jne	.LBB0_313
# %bb.154:                              # %"consume f6_0_d_def__408"
	leal	(%r15,%r13), %eax
	movq	352(%rsp), %rcx                 # 8-byte Reload
	movl	%ecx, 2936(%rsp)
	movl	224(%rsp), %ecx                 # 4-byte Reload
	movl	%ecx, 2940(%rsp)
	movl	160(%rsp), %ecx                 # 4-byte Reload
	movl	%ecx, 2944(%rsp)
	movq	40(%rsp), %rcx                  # 8-byte Reload
	movl	%ecx, 2948(%rsp)
	movq	448(%rsp), %rcx                 # 8-byte Reload
	movl	%ecx, 2952(%rsp)
	movl	36(%rsp), %ecx                  # 4-byte Reload
	movl	%ecx, 2956(%rsp)
	movq	576(%rsp), %rcx                 # 8-byte Reload
	movl	%ecx, 2960(%rsp)
	movl	48(%rsp), %ecx                  # 4-byte Reload
	movl	%ecx, 2964(%rsp)
	movl	88(%rsp), %ecx                  # 4-byte Reload
	movl	%ecx, 2968(%rsp)
	movl	%ebx, 2972(%rsp)
	movl	%r14d, 488(%rsp)                # 4-byte Spill
	movl	%r14d, 2976(%rsp)
	movl	%eax, 856(%rsp)                 # 4-byte Spill
	movl	%eax, 2980(%rsp)
	movq	24(%rsp), %rax                  # 8-byte Reload
	movq	%rax, 2984(%rsp)
	movq	$0, 2992(%rsp)
	movq	96(%rsp), %r14                  # 8-byte Reload
	movq	%r14, 3000(%rsp)
	movq	$0, 3008(%rsp)
	movq	80(%rsp), %rax                  # 8-byte Reload
	movq	%rax, 3016(%rsp)
	movq	320(%rsp), %rax                 # 8-byte Reload
	movq	%rax, 3024(%rsp)
	leaq	train_cost_model.par_for.relu1_0_d_def__.s11.n.n.n(%rip), %rsi
	leaq	2936(%rsp), %r8
	xorl	%edi, %edi
	xorl	%edx, %edx
	movq	288(%rsp), %rcx                 # 8-byte Reload
                                        # kill: def $ecx killed $ecx killed $rcx
	callq	halide_do_par_for@PLT
	testl	%eax, %eax
	jne	.LBB0_313
# %bb.155:                              # %"consume f6_0_d_def__411"
	leal	(,%r13,8), %eax
	leal	(%rax,%rax,2), %eax
	movq	352(%rsp), %rcx                 # 8-byte Reload
	movl	%ecx, 4608(%rsp)
	movl	224(%rsp), %ecx                 # 4-byte Reload
	movl	%ecx, 4612(%rsp)
	movl	160(%rsp), %ecx                 # 4-byte Reload
	movl	%ecx, 4616(%rsp)
	movq	40(%rsp), %rcx                  # 8-byte Reload
	movl	%ecx, 4620(%rsp)
	movq	448(%rsp), %rcx                 # 8-byte Reload
	movl	%ecx, 4624(%rsp)
	movl	36(%rsp), %ecx                  # 4-byte Reload
	movl	%ecx, 4628(%rsp)
	movq	576(%rsp), %rcx                 # 8-byte Reload
	movl	%ecx, 4632(%rsp)
	movl	48(%rsp), %ecx                  # 4-byte Reload
	movl	%ecx, 4636(%rsp)
	movl	88(%rsp), %ecx                  # 4-byte Reload
	movl	%ecx, 4640(%rsp)
	movl	%eax, 144(%rsp)                 # 4-byte Spill
	movl	%eax, 4644(%rsp)
	movl	%r15d, 4648(%rsp)
	movq	24(%rsp), %rax                  # 8-byte Reload
	movq	%rax, 4656(%rsp)
	movq	$0, 4664(%rsp)
	movq	%r14, 4672(%rsp)
	movq	$0, 4680(%rsp)
	movq	80(%rsp), %rax                  # 8-byte Reload
	movq	%rax, 4688(%rsp)
	movq	320(%rsp), %rax                 # 8-byte Reload
	movq	%rax, 4696(%rsp)
	leaq	train_cost_model.par_for.relu1_0_d_def__.s12.n.n.n(%rip), %rsi
	leaq	4608(%rsp), %r8
	xorl	%edi, %edi
	xorl	%edx, %edx
	movq	288(%rsp), %rcx                 # 8-byte Reload
                                        # kill: def $ecx killed $ecx killed $rcx
	callq	halide_do_par_for@PLT
	testl	%eax, %eax
	jne	.LBB0_313
# %bb.156:                              # %"consume f6_0_d_def__414"
	movq	%r15, %rbx
	leal	(%r13,%r13,4), %eax
	leal	(%rax,%rax,4), %eax
	movq	352(%rsp), %rcx                 # 8-byte Reload
	movl	%ecx, 4704(%rsp)
	movl	224(%rsp), %ecx                 # 4-byte Reload
	movl	%ecx, 4708(%rsp)
	movl	160(%rsp), %ecx                 # 4-byte Reload
	movl	%ecx, 4712(%rsp)
	movq	40(%rsp), %rcx                  # 8-byte Reload
	movl	%ecx, 4716(%rsp)
	movq	448(%rsp), %rcx                 # 8-byte Reload
	movl	%ecx, 4720(%rsp)
	movl	36(%rsp), %ecx                  # 4-byte Reload
	movl	%ecx, 4724(%rsp)
	movq	576(%rsp), %rcx                 # 8-byte Reload
	movl	%ecx, 4728(%rsp)
	movl	48(%rsp), %ecx                  # 4-byte Reload
	movl	%ecx, 4732(%rsp)
	movl	88(%rsp), %ecx                  # 4-byte Reload
	movl	%ecx, 4736(%rsp)
	movl	%eax, 216(%rsp)                 # 4-byte Spill
	movl	%eax, 4740(%rsp)
	movl	%ebx, 4744(%rsp)
	movq	24(%rsp), %rax                  # 8-byte Reload
	movq	%rax, 4752(%rsp)
	movq	$0, 4760(%rsp)
	movq	%r14, 4768(%rsp)
	movq	$0, 4776(%rsp)
	movq	80(%rsp), %rax                  # 8-byte Reload
	movq	%rax, 4784(%rsp)
	movq	320(%rsp), %rax                 # 8-byte Reload
	movq	%rax, 4792(%rsp)
	leaq	train_cost_model.par_for.relu1_0_d_def__.s13.n.n.n(%rip), %rsi
	leaq	4704(%rsp), %r8
	xorl	%edi, %edi
	xorl	%edx, %edx
	movq	288(%rsp), %rcx                 # 8-byte Reload
                                        # kill: def $ecx killed $ecx killed $rcx
	callq	halide_do_par_for@PLT
	testl	%eax, %eax
	jne	.LBB0_313
# %bb.157:                              # %"consume f6_0_d_def__417"
	movl	%ebx, %r15d
	subl	%r13d, %r15d
	movq	352(%rsp), %rax                 # 8-byte Reload
	movl	%eax, 4800(%rsp)
	movl	224(%rsp), %eax                 # 4-byte Reload
	movl	%eax, 4804(%rsp)
	movl	160(%rsp), %eax                 # 4-byte Reload
	movl	%eax, 4808(%rsp)
	movq	40(%rsp), %rax                  # 8-byte Reload
	movl	%eax, 4812(%rsp)
	movq	448(%rsp), %rax                 # 8-byte Reload
	movl	%eax, 4816(%rsp)
	movl	36(%rsp), %eax                  # 4-byte Reload
	movl	%eax, 4820(%rsp)
	movq	576(%rsp), %rax                 # 8-byte Reload
	movl	%eax, 4824(%rsp)
	movl	48(%rsp), %eax                  # 4-byte Reload
	movl	%eax, 4828(%rsp)
	movl	88(%rsp), %eax                  # 4-byte Reload
	movl	%eax, 4832(%rsp)
	movl	144(%rsp), %eax                 # 4-byte Reload
	movl	%eax, 4836(%rsp)
	movl	%r15d, 4840(%rsp)
	movq	24(%rsp), %r13                  # 8-byte Reload
	movq	%r13, 4848(%rsp)
	movq	$0, 4856(%rsp)
	movq	%r14, 4864(%rsp)
	movq	$0, 4872(%rsp)
	movq	80(%rsp), %rax                  # 8-byte Reload
	movq	%rax, 4880(%rsp)
	movq	320(%rsp), %rax                 # 8-byte Reload
	movq	%rax, 4888(%rsp)
	leaq	train_cost_model.par_for.relu1_0_d_def__.s14.n.n.n(%rip), %rsi
	leaq	4800(%rsp), %r8
	xorl	%edi, %edi
	xorl	%edx, %edx
	movq	288(%rsp), %rcx                 # 8-byte Reload
                                        # kill: def $ecx killed $ecx killed $rcx
	callq	halide_do_par_for@PLT
	testl	%eax, %eax
	jne	.LBB0_314
# %bb.158:                              # %"consume f6_0_d_def__420"
	movq	%rbx, 688(%rsp)                 # 8-byte Spill
	movq	352(%rsp), %rax                 # 8-byte Reload
	movl	%eax, 4896(%rsp)
	movl	224(%rsp), %eax                 # 4-byte Reload
	movl	%eax, 4900(%rsp)
	movl	160(%rsp), %eax                 # 4-byte Reload
	movl	%eax, 4904(%rsp)
	movq	40(%rsp), %rax                  # 8-byte Reload
	movl	%eax, 4908(%rsp)
	movq	448(%rsp), %rax                 # 8-byte Reload
	movl	%eax, 4912(%rsp)
	movl	36(%rsp), %eax                  # 4-byte Reload
	movl	%eax, 4916(%rsp)
	movq	576(%rsp), %rax                 # 8-byte Reload
	movl	%eax, 4920(%rsp)
	movl	48(%rsp), %eax                  # 4-byte Reload
	movl	%eax, 4924(%rsp)
	movl	88(%rsp), %eax                  # 4-byte Reload
	movl	%eax, 4928(%rsp)
	movl	216(%rsp), %eax                 # 4-byte Reload
	movl	%eax, 4932(%rsp)
	movl	%r15d, 4936(%rsp)
	movq	%r13, 4944(%rsp)
	movq	$0, 4952(%rsp)
	movq	%r14, 4960(%rsp)
	movq	$0, 4968(%rsp)
	movq	80(%rsp), %rax                  # 8-byte Reload
	movq	%rax, 4976(%rsp)
	movq	320(%rsp), %rax                 # 8-byte Reload
	movq	%rax, 4984(%rsp)
	leaq	train_cost_model.par_for.relu1_0_d_def__.s15.n.n.n(%rip), %rsi
	leaq	4896(%rsp), %r8
	xorl	%edi, %edi
	xorl	%edx, %edx
	movq	288(%rsp), %rcx                 # 8-byte Reload
                                        # kill: def $ecx killed $ecx killed $rcx
	callq	halide_do_par_for@PLT
	testl	%eax, %eax
	jne	.LBB0_314
# %bb.159:                              # %"consume f6_0_d_def__423"
	movq	1344(%rsp), %rbx                # 8-byte Reload
	leal	(%rbx,%rbx,8), %eax
	leal	(%rax,%rax,2), %ecx
	movq	352(%rsp), %rax                 # 8-byte Reload
	movl	%eax, 4992(%rsp)
	movl	224(%rsp), %eax                 # 4-byte Reload
	movl	%eax, 4996(%rsp)
	movl	160(%rsp), %eax                 # 4-byte Reload
	movl	%eax, 5000(%rsp)
	movq	40(%rsp), %rax                  # 8-byte Reload
	movl	%eax, 5004(%rsp)
	movq	448(%rsp), %rax                 # 8-byte Reload
	movl	%eax, 5008(%rsp)
	movl	36(%rsp), %eax                  # 4-byte Reload
	movl	%eax, 5012(%rsp)
	movq	576(%rsp), %rax                 # 8-byte Reload
	movl	%eax, 5016(%rsp)
	movl	48(%rsp), %eax                  # 4-byte Reload
	movl	%eax, 5020(%rsp)
	movl	88(%rsp), %eax                  # 4-byte Reload
	movl	%eax, 5024(%rsp)
	movl	144(%rsp), %eax                 # 4-byte Reload
	movl	%eax, 5028(%rsp)
	movl	%ecx, 968(%rsp)                 # 4-byte Spill
	movl	%ecx, 5032(%rsp)
	movq	%r13, 5040(%rsp)
	movq	$0, 5048(%rsp)
	movq	%r14, 5056(%rsp)
	movq	$0, 5064(%rsp)
	movq	80(%rsp), %rax                  # 8-byte Reload
	movq	%rax, 5072(%rsp)
	movq	320(%rsp), %rax                 # 8-byte Reload
	movq	%rax, 5080(%rsp)
	leaq	train_cost_model.par_for.relu1_0_d_def__.s16.n.n.n(%rip), %rsi
	leaq	4992(%rsp), %r8
	xorl	%edi, %edi
	xorl	%edx, %edx
	movq	288(%rsp), %rcx                 # 8-byte Reload
                                        # kill: def $ecx killed $ecx killed $rcx
	callq	halide_do_par_for@PLT
	testl	%eax, %eax
	jne	.LBB0_314
# %bb.160:                              # %"consume f6_0_d_def__426"
	movl	%r15d, 208(%rsp)                # 4-byte Spill
	leal	(%rbx,%rbx,8), %eax
	leal	(%rax,%rax,2), %ecx
	addl	%ebx, %ecx
	movq	352(%rsp), %rax                 # 8-byte Reload
	movl	%eax, 5088(%rsp)
	movl	224(%rsp), %eax                 # 4-byte Reload
	movl	%eax, 5092(%rsp)
	movl	160(%rsp), %eax                 # 4-byte Reload
	movl	%eax, 5096(%rsp)
	movq	40(%rsp), %rax                  # 8-byte Reload
	movl	%eax, 5100(%rsp)
	movq	448(%rsp), %rax                 # 8-byte Reload
	movl	%eax, 5104(%rsp)
	movl	36(%rsp), %eax                  # 4-byte Reload
	movl	%eax, 5108(%rsp)
	movq	576(%rsp), %rax                 # 8-byte Reload
	movl	%eax, 5112(%rsp)
	movl	48(%rsp), %eax                  # 4-byte Reload
	movl	%eax, 5116(%rsp)
	movl	88(%rsp), %eax                  # 4-byte Reload
	movl	%eax, 5120(%rsp)
	movl	216(%rsp), %eax                 # 4-byte Reload
	movl	%eax, 5124(%rsp)
	movl	%ecx, 272(%rsp)                 # 4-byte Spill
	movl	%ecx, 5128(%rsp)
	movq	%r13, 5136(%rsp)
	movq	$0, 5144(%rsp)
	movq	%r14, 5152(%rsp)
	movq	$0, 5160(%rsp)
	movq	80(%rsp), %rax                  # 8-byte Reload
	movq	%rax, 5168(%rsp)
	movq	320(%rsp), %rax                 # 8-byte Reload
	movq	%rax, 5176(%rsp)
	leaq	train_cost_model.par_for.relu1_0_d_def__.s17.n.n.n(%rip), %rsi
	leaq	5088(%rsp), %r8
	xorl	%edi, %edi
	xorl	%edx, %edx
	movq	288(%rsp), %rcx                 # 8-byte Reload
                                        # kill: def $ecx killed $ecx killed $rcx
	callq	halide_do_par_for@PLT
	testl	%eax, %eax
	jne	.LBB0_314
# %bb.161:                              # %"consume f6_0_d_def__429"
	leal	(%rbx,%rbx,4), %eax
	leal	(%rax,%rax,4), %ecx
	addl	%ebx, %ecx
	movq	352(%rsp), %rax                 # 8-byte Reload
	movl	%eax, 5184(%rsp)
	movl	224(%rsp), %eax                 # 4-byte Reload
	movl	%eax, 5188(%rsp)
	movl	160(%rsp), %eax                 # 4-byte Reload
	movl	%eax, 5192(%rsp)
	movq	40(%rsp), %rax                  # 8-byte Reload
	movl	%eax, 5196(%rsp)
	movq	448(%rsp), %rax                 # 8-byte Reload
	movl	%eax, 5200(%rsp)
	movl	36(%rsp), %eax                  # 4-byte Reload
	movl	%eax, 5204(%rsp)
	movq	576(%rsp), %r15                 # 8-byte Reload
	movl	%r15d, 5208(%rsp)
	movl	48(%rsp), %eax                  # 4-byte Reload
	movl	%eax, 5212(%rsp)
	movl	88(%rsp), %ebx                  # 4-byte Reload
	movl	%ebx, 5216(%rsp)
	movl	144(%rsp), %eax                 # 4-byte Reload
	movl	%eax, 5220(%rsp)
	movl	%ecx, 952(%rsp)                 # 4-byte Spill
	movl	%ecx, 5224(%rsp)
	movq	%r13, 5232(%rsp)
	movq	$0, 5240(%rsp)
	movq	%r14, 5248(%rsp)
	movq	$0, 5256(%rsp)
	movq	80(%rsp), %rax                  # 8-byte Reload
	movq	%rax, 5264(%rsp)
	movq	320(%rsp), %rax                 # 8-byte Reload
	movq	%rax, 5272(%rsp)
	leaq	train_cost_model.par_for.relu1_0_d_def__.s18.n.n.n(%rip), %rsi
	leaq	5184(%rsp), %r8
	xorl	%edi, %edi
	xorl	%edx, %edx
	movq	288(%rsp), %rcx                 # 8-byte Reload
                                        # kill: def $ecx killed $ecx killed $rcx
	callq	halide_do_par_for@PLT
	testl	%eax, %eax
	jne	.LBB0_313
# %bb.162:                              # %"consume f6_0_d_def__432"
	movl	%ebx, %r13d
	movq	480(%rsp), %rax                 # 8-byte Reload
	leal	(%rax,%rax,8), %eax
	movq	352(%rsp), %rcx                 # 8-byte Reload
	movl	%ecx, 3912(%rsp)
	movl	224(%rsp), %ecx                 # 4-byte Reload
	movl	%ecx, 3916(%rsp)
	movl	160(%rsp), %ecx                 # 4-byte Reload
	movl	%ecx, 3920(%rsp)
	movq	40(%rsp), %rcx                  # 8-byte Reload
	movl	%ecx, 3924(%rsp)
	movq	448(%rsp), %rcx                 # 8-byte Reload
	movl	%ecx, 3928(%rsp)
	movl	36(%rsp), %ecx                  # 4-byte Reload
	movl	%ecx, 3932(%rsp)
	movl	%r15d, 3936(%rsp)
	movl	48(%rsp), %ecx                  # 4-byte Reload
	movl	%ecx, 3940(%rsp)
	movl	%ebx, 3944(%rsp)
	movl	%eax, 832(%rsp)                 # 4-byte Spill
	movl	%eax, 3948(%rsp)
	movq	24(%rsp), %rax                  # 8-byte Reload
	movq	%rax, 3952(%rsp)
	movq	$0, 3960(%rsp)
	movq	%r14, 3968(%rsp)
	movq	$0, 3976(%rsp)
	movq	80(%rsp), %rax                  # 8-byte Reload
	movq	%rax, 3984(%rsp)
	movq	320(%rsp), %rax                 # 8-byte Reload
	movq	%rax, 3992(%rsp)
	leaq	train_cost_model.par_for.relu1_0_d_def__.s19.n.n.n(%rip), %rsi
	leaq	3912(%rsp), %r8
	xorl	%edi, %edi
	xorl	%edx, %edx
	movq	288(%rsp), %rcx                 # 8-byte Reload
                                        # kill: def $ecx killed $ecx killed $rcx
	callq	halide_do_par_for@PLT
	testl	%eax, %eax
	movq	%r15, %r14
	movl	208(%rsp), %r15d                # 4-byte Reload
	jne	.LBB0_313
# %bb.163:                              # %"consume f6_0_d_def__435"
	movl	%r13d, %edx
	movq	1344(%rsp), %rbx                # 8-byte Reload
	leal	(%rbx,%rbx,8), %eax
	leal	(%rbx,%rax,2), %eax
	movq	352(%rsp), %rcx                 # 8-byte Reload
	movl	%ecx, 4000(%rsp)
	movl	224(%rsp), %ecx                 # 4-byte Reload
	movl	%ecx, 4004(%rsp)
	movl	160(%rsp), %ecx                 # 4-byte Reload
	movl	%ecx, 4008(%rsp)
	movq	40(%rsp), %rcx                  # 8-byte Reload
	movl	%ecx, 4012(%rsp)
	movq	448(%rsp), %r13                 # 8-byte Reload
	movl	%r13d, 4016(%rsp)
	movl	36(%rsp), %ecx                  # 4-byte Reload
	movl	%ecx, 4020(%rsp)
	movl	%r14d, 4024(%rsp)
	movl	48(%rsp), %ecx                  # 4-byte Reload
	movl	%ecx, 4028(%rsp)
	movl	%edx, 4032(%rsp)
	movl	%eax, 824(%rsp)                 # 4-byte Spill
	movl	%eax, 4036(%rsp)
	movq	24(%rsp), %rax                  # 8-byte Reload
	movq	%rax, 4040(%rsp)
	movq	$0, 4048(%rsp)
	movq	96(%rsp), %rax                  # 8-byte Reload
	movq	%rax, 4056(%rsp)
	movq	$0, 4064(%rsp)
	movq	80(%rsp), %rax                  # 8-byte Reload
	movq	%rax, 4072(%rsp)
	movq	320(%rsp), %rax                 # 8-byte Reload
	movq	%rax, 4080(%rsp)
	leaq	train_cost_model.par_for.relu1_0_d_def__.s20.n.n.n(%rip), %rsi
	leaq	4000(%rsp), %r8
	xorl	%edi, %edi
	xorl	%edx, %edx
	movq	288(%rsp), %rcx                 # 8-byte Reload
                                        # kill: def $ecx killed $ecx killed $rcx
	callq	halide_do_par_for@PLT
	testl	%eax, %eax
	jne	.LBB0_315
# %bb.164:                              # %"consume f6_0_d_def__438"
	movq	%r13, %rdx
	leal	(,%rbx,4), %eax
	leal	(%rax,%rax,2), %ecx
	subl	%ebx, %r15d
	movq	352(%rsp), %rax                 # 8-byte Reload
	movl	%eax, 4176(%rsp)
	movl	224(%rsp), %eax                 # 4-byte Reload
	movl	%eax, 4180(%rsp)
	movl	160(%rsp), %eax                 # 4-byte Reload
	movl	%eax, 4184(%rsp)
	movq	40(%rsp), %rax                  # 8-byte Reload
	movl	%eax, 4188(%rsp)
	movl	%edx, 4192(%rsp)
	movl	36(%rsp), %eax                  # 4-byte Reload
	movl	%eax, 4196(%rsp)
	movl	%r14d, 4200(%rsp)
	movl	48(%rsp), %eax                  # 4-byte Reload
	movl	%eax, 4204(%rsp)
	movl	88(%rsp), %ebx                  # 4-byte Reload
	movl	%ebx, 4208(%rsp)
	movl	152(%rsp), %r13d                # 4-byte Reload
	movl	%r13d, 4212(%rsp)
	movl	488(%rsp), %eax                 # 4-byte Reload
	movl	%eax, 4216(%rsp)
	movl	%ecx, 864(%rsp)                 # 4-byte Spill
	movl	%ecx, 4220(%rsp)
	movl	%r15d, 4224(%rsp)
	movq	24(%rsp), %rax                  # 8-byte Reload
	movq	%rax, 4232(%rsp)
	movq	$0, 4240(%rsp)
	movq	96(%rsp), %rax                  # 8-byte Reload
	movq	%rax, 4248(%rsp)
	movq	$0, 4256(%rsp)
	movq	80(%rsp), %rax                  # 8-byte Reload
	movq	%rax, 4264(%rsp)
	movq	320(%rsp), %rax                 # 8-byte Reload
	movq	%rax, 4272(%rsp)
	leaq	train_cost_model.par_for.relu1_0_d_def__.s21.n.n.n(%rip), %rsi
	leaq	4176(%rsp), %r8
	xorl	%edi, %edi
	xorl	%edx, %edx
	movq	288(%rsp), %rcx                 # 8-byte Reload
                                        # kill: def $ecx killed $ecx killed $rcx
	callq	halide_do_par_for@PLT
	testl	%eax, %eax
	jne	.LBB0_313
# %bb.165:                              # %"consume f6_0_d_def__441"
	movq	352(%rsp), %rax                 # 8-byte Reload
	movl	%eax, 4280(%rsp)
	movl	224(%rsp), %eax                 # 4-byte Reload
	movl	%eax, 4284(%rsp)
	movl	160(%rsp), %eax                 # 4-byte Reload
	movl	%eax, 4288(%rsp)
	movq	40(%rsp), %rax                  # 8-byte Reload
	movl	%eax, 4292(%rsp)
	movq	448(%rsp), %rax                 # 8-byte Reload
	movl	%eax, 4296(%rsp)
	movl	36(%rsp), %eax                  # 4-byte Reload
	movl	%eax, 4300(%rsp)
	movl	%r14d, 4304(%rsp)
	movl	48(%rsp), %eax                  # 4-byte Reload
	movl	%eax, 4308(%rsp)
	movl	%ebx, 4312(%rsp)
	movl	%r13d, 4316(%rsp)
	movl	144(%rsp), %eax                 # 4-byte Reload
	movl	%eax, 4320(%rsp)
	movl	216(%rsp), %eax                 # 4-byte Reload
	movl	%eax, 4324(%rsp)
	movl	%r15d, 664(%rsp)                # 4-byte Spill
	movl	%r15d, 4328(%rsp)
	movq	24(%rsp), %rax                  # 8-byte Reload
	movq	%rax, 4336(%rsp)
	movq	$0, 4344(%rsp)
	movq	96(%rsp), %rbx                  # 8-byte Reload
	movq	%rbx, 4352(%rsp)
	movq	$0, 4360(%rsp)
	movq	80(%rsp), %rax                  # 8-byte Reload
	movq	%rax, 4368(%rsp)
	movq	320(%rsp), %rax                 # 8-byte Reload
	movq	%rax, 4376(%rsp)
	leaq	train_cost_model.par_for.relu1_0_d_def__.s22.n.n.n(%rip), %rsi
	leaq	4280(%rsp), %r8
	xorl	%edi, %edi
	xorl	%edx, %edx
	movq	288(%rsp), %rcx                 # 8-byte Reload
                                        # kill: def $ecx killed $ecx killed $rcx
	callq	halide_do_par_for@PLT
	testl	%eax, %eax
	jne	.LBB0_313
# %bb.166:                              # %"consume f6_0_d_def__444"
	movq	%r14, %r13
	movq	%rbx, %rdx
	movq	1344(%rsp), %rcx                # 8-byte Reload
	leal	(%rcx,%rcx,4), %eax
	leal	(%rcx,%rax,2), %r15d
	movq	352(%rsp), %rax                 # 8-byte Reload
	movl	%eax, 5280(%rsp)
	movl	224(%rsp), %eax                 # 4-byte Reload
	movl	%eax, 5284(%rsp)
	movl	160(%rsp), %eax                 # 4-byte Reload
	movl	%eax, 5288(%rsp)
	movq	40(%rsp), %rax                  # 8-byte Reload
	movl	%eax, 5292(%rsp)
	movq	448(%rsp), %rax                 # 8-byte Reload
	movl	%eax, 5296(%rsp)
	movl	36(%rsp), %eax                  # 4-byte Reload
	movl	%eax, 5300(%rsp)
	movl	%r13d, 5304(%rsp)
	movl	48(%rsp), %eax                  # 4-byte Reload
	movl	%eax, 5308(%rsp)
	movl	88(%rsp), %ebx                  # 4-byte Reload
	movl	%ebx, 5312(%rsp)
	movl	152(%rsp), %eax                 # 4-byte Reload
	movl	%eax, 5316(%rsp)
	movl	%r15d, 5320(%rsp)
	movq	24(%rsp), %rax                  # 8-byte Reload
	movq	%rax, 5328(%rsp)
	movq	$0, 5336(%rsp)
	movq	%rdx, 5344(%rsp)
	movq	$0, 5352(%rsp)
	movq	80(%rsp), %rax                  # 8-byte Reload
	movq	%rax, 5360(%rsp)
	movq	320(%rsp), %r14                 # 8-byte Reload
	movq	%r14, 5368(%rsp)
	leaq	train_cost_model.par_for.relu1_0_d_def__.s23.n.n.n(%rip), %rsi
	leaq	5280(%rsp), %r8
	xorl	%edi, %edi
	xorl	%edx, %edx
	movq	288(%rsp), %rcx                 # 8-byte Reload
                                        # kill: def $ecx killed $ecx killed $rcx
	callq	halide_do_par_for@PLT
	testl	%eax, %eax
	jne	.LBB0_313
# %bb.167:                              # %"consume f6_0_d_def__447"
	movq	352(%rsp), %rax                 # 8-byte Reload
	movl	%eax, 4088(%rsp)
	movl	224(%rsp), %eax                 # 4-byte Reload
	movl	%eax, 4092(%rsp)
	movl	160(%rsp), %eax                 # 4-byte Reload
	movl	%eax, 4096(%rsp)
	movq	40(%rsp), %rax                  # 8-byte Reload
	movl	%eax, 4100(%rsp)
	movq	448(%rsp), %rax                 # 8-byte Reload
	movl	%eax, 4104(%rsp)
	movl	%r13d, 4108(%rsp)
	movl	48(%rsp), %eax                  # 4-byte Reload
	movl	%eax, 4112(%rsp)
	movl	%ebx, 4116(%rsp)
	movl	152(%rsp), %eax                 # 4-byte Reload
	movl	%eax, 4120(%rsp)
	movl	%r15d, 4124(%rsp)
	movq	24(%rsp), %rax                  # 8-byte Reload
	movq	%rax, 4128(%rsp)
	movq	$0, 4136(%rsp)
	movq	96(%rsp), %rax                  # 8-byte Reload
	movq	%rax, 4144(%rsp)
	movq	$0, 4152(%rsp)
	movq	80(%rsp), %rax                  # 8-byte Reload
	movq	%rax, 4160(%rsp)
	movq	%r14, 4168(%rsp)
	leaq	train_cost_model.par_for.relu1_0_d_def__.s24.n.n.n(%rip), %rsi
	leaq	4088(%rsp), %r8
	xorl	%edi, %edi
	xorl	%edx, %edx
	movq	288(%rsp), %rcx                 # 8-byte Reload
                                        # kill: def $ecx killed $ecx killed $rcx
	callq	halide_do_par_for@PLT
	testl	%eax, %eax
	jne	.LBB0_313
# %bb.168:                              # %"consume f6_0_d_def__450"
	movl	%ebx, %r14d
	movl	%r15d, %eax
	movq	%r13, %rbx
	movq	352(%rsp), %r15                 # 8-byte Reload
	movl	%r15d, 5376(%rsp)
	movl	224(%rsp), %ecx                 # 4-byte Reload
	movl	%ecx, 5380(%rsp)
	movl	160(%rsp), %ecx                 # 4-byte Reload
	movl	%ecx, 5384(%rsp)
	movq	40(%rsp), %rcx                  # 8-byte Reload
	movl	%ecx, 5388(%rsp)
	movq	448(%rsp), %rcx                 # 8-byte Reload
	movl	%ecx, 5392(%rsp)
	movl	36(%rsp), %r13d                 # 4-byte Reload
	movl	%r13d, 5396(%rsp)
	movl	%ebx, 5400(%rsp)
	movl	48(%rsp), %ecx                  # 4-byte Reload
	movl	%ecx, 5404(%rsp)
	movl	%r14d, 5408(%rsp)
	movl	152(%rsp), %ecx                 # 4-byte Reload
	movl	%ecx, 5412(%rsp)
	movl	%eax, 840(%rsp)                 # 4-byte Spill
	movl	%eax, 5416(%rsp)
	movq	24(%rsp), %rax                  # 8-byte Reload
	movq	%rax, 5424(%rsp)
	movq	$0, 5432(%rsp)
	movq	96(%rsp), %rax                  # 8-byte Reload
	movq	%rax, 5440(%rsp)
	movq	$0, 5448(%rsp)
	movq	80(%rsp), %rax                  # 8-byte Reload
	movq	%rax, 5456(%rsp)
	movq	320(%rsp), %rax                 # 8-byte Reload
	movq	%rax, 5464(%rsp)
	leaq	train_cost_model.par_for.relu1_0_d_def__.s25.n.n.n(%rip), %rsi
	leaq	5376(%rsp), %r8
	xorl	%edi, %edi
	xorl	%edx, %edx
	movq	288(%rsp), %rcx                 # 8-byte Reload
                                        # kill: def $ecx killed $ecx killed $rcx
	callq	halide_do_par_for@PLT
	testl	%eax, %eax
	jne	.LBB0_313
# %bb.169:                              # %"consume f6_0_d_def__453"
	movq	1344(%rsp), %rcx                # 8-byte Reload
	leal	(%rcx,%rcx,8), %eax
	leal	(%rax,%rax,2), %ebx
	addl	%ecx, %ebx
	addl	%ecx, %ebx
	movl	%r15d, 3032(%rsp)
	movl	224(%rsp), %eax                 # 4-byte Reload
	movl	%eax, 3036(%rsp)
	movl	160(%rsp), %eax                 # 4-byte Reload
	movl	%eax, 3040(%rsp)
	movq	40(%rsp), %rax                  # 8-byte Reload
	movl	%eax, 3044(%rsp)
	movq	448(%rsp), %rax                 # 8-byte Reload
	movl	%eax, 3048(%rsp)
	movl	%r13d, 3052(%rsp)
	movq	576(%rsp), %rax                 # 8-byte Reload
	movl	%eax, 3056(%rsp)
	movl	48(%rsp), %eax                  # 4-byte Reload
	movl	%eax, 3060(%rsp)
	movl	%r14d, 3064(%rsp)
	movl	152(%rsp), %eax                 # 4-byte Reload
	movl	%eax, 3068(%rsp)
	movl	%ebx, 3072(%rsp)
	movl	%r14d, %r13d
	movl	664(%rsp), %r14d                # 4-byte Reload
	movl	%r14d, 3076(%rsp)
	movq	24(%rsp), %rax                  # 8-byte Reload
	movq	%rax, 3080(%rsp)
	movq	$0, 3088(%rsp)
	movq	96(%rsp), %rax                  # 8-byte Reload
	movq	%rax, 3096(%rsp)
	movq	$0, 3104(%rsp)
	movq	80(%rsp), %rax                  # 8-byte Reload
	movq	%rax, 3112(%rsp)
	movq	320(%rsp), %rax                 # 8-byte Reload
	movq	%rax, 3120(%rsp)
	leaq	train_cost_model.par_for.relu1_0_d_def__.s26.n.n.n(%rip), %rsi
	leaq	3032(%rsp), %r8
	xorl	%edi, %edi
	xorl	%edx, %edx
	movq	288(%rsp), %rcx                 # 8-byte Reload
                                        # kill: def $ecx killed $ecx killed $rcx
	callq	halide_do_par_for@PLT
	testl	%eax, %eax
	jne	.LBB0_313
# %bb.170:                              # %"consume f6_0_d_def__456"
	movl	%r15d, 5472(%rsp)
	movl	224(%rsp), %eax                 # 4-byte Reload
	movl	%eax, 5476(%rsp)
	movl	160(%rsp), %eax                 # 4-byte Reload
	movl	%eax, 5480(%rsp)
	movq	40(%rsp), %rax                  # 8-byte Reload
	movl	%eax, 5484(%rsp)
	movq	448(%rsp), %rax                 # 8-byte Reload
	movl	%eax, 5488(%rsp)
	movq	576(%rsp), %rax                 # 8-byte Reload
	movl	%eax, 5492(%rsp)
	movl	48(%rsp), %eax                  # 4-byte Reload
	movl	%eax, 5496(%rsp)
	movl	%r13d, 5500(%rsp)
	movl	152(%rsp), %eax                 # 4-byte Reload
	movl	%eax, 5504(%rsp)
	movl	%ebx, 5508(%rsp)
	movl	%r14d, 5512(%rsp)
	movq	24(%rsp), %rax                  # 8-byte Reload
	movq	%rax, 5520(%rsp)
	movq	$0, 5528(%rsp)
	movq	96(%rsp), %rax                  # 8-byte Reload
	movq	%rax, 5536(%rsp)
	movq	$0, 5544(%rsp)
	movq	80(%rsp), %rax                  # 8-byte Reload
	movq	%rax, 5552(%rsp)
	movq	320(%rsp), %rax                 # 8-byte Reload
	movq	%rax, 5560(%rsp)
	leaq	train_cost_model.par_for.relu1_0_d_def__.s27.n.n.n(%rip), %rsi
	leaq	5472(%rsp), %r8
	xorl	%edi, %edi
	xorl	%edx, %edx
	movq	288(%rsp), %rcx                 # 8-byte Reload
                                        # kill: def $ecx killed $ecx killed $rcx
	callq	halide_do_par_for@PLT
	testl	%eax, %eax
	jne	.LBB0_313
# %bb.171:                              # %"consume f6_0_d_def__459"
	movl	%r15d, 3128(%rsp)
	movl	224(%rsp), %eax                 # 4-byte Reload
	movl	%eax, 3132(%rsp)
	movl	160(%rsp), %eax                 # 4-byte Reload
	movl	%eax, 3136(%rsp)
	movq	40(%rsp), %rax                  # 8-byte Reload
	movl	%eax, 3140(%rsp)
	movq	448(%rsp), %r13                 # 8-byte Reload
	movl	%r13d, 3144(%rsp)
	movl	36(%rsp), %eax                  # 4-byte Reload
	movl	%eax, 3148(%rsp)
	movq	576(%rsp), %rax                 # 8-byte Reload
	movl	%eax, 3152(%rsp)
	movl	48(%rsp), %eax                  # 4-byte Reload
	movl	%eax, 3156(%rsp)
	movl	88(%rsp), %eax                  # 4-byte Reload
	movl	%eax, 3160(%rsp)
	movl	152(%rsp), %r15d                # 4-byte Reload
	movl	%r15d, 3164(%rsp)
	movl	%ebx, 976(%rsp)                 # 4-byte Spill
	movl	%ebx, 3168(%rsp)
	movl	%r14d, 3172(%rsp)
	movq	24(%rsp), %rax                  # 8-byte Reload
	movq	%rax, 3176(%rsp)
	movq	$0, 3184(%rsp)
	movq	96(%rsp), %rax                  # 8-byte Reload
	movq	%rax, 3192(%rsp)
	movq	$0, 3200(%rsp)
	movq	80(%rsp), %rax                  # 8-byte Reload
	movq	%rax, 3208(%rsp)
	movq	320(%rsp), %rax                 # 8-byte Reload
	movq	%rax, 3216(%rsp)
	leaq	train_cost_model.par_for.relu1_0_d_def__.s28.n.n.n(%rip), %rsi
	leaq	3128(%rsp), %r8
	xorl	%edi, %edi
	xorl	%edx, %edx
	movq	288(%rsp), %rcx                 # 8-byte Reload
                                        # kill: def $ecx killed $ecx killed $rcx
	callq	halide_do_par_for@PLT
	testl	%eax, %eax
	jne	.LBB0_313
# %bb.172:                              # %"consume f6_0_d_def__462"
	movq	%r13, %rcx
	movq	1344(%rsp), %r13                # 8-byte Reload
	movl	%r13d, %ebx
	shll	$4, %ebx
	addl	%r13d, %ebx
	movq	352(%rsp), %rax                 # 8-byte Reload
	movl	%eax, 2592(%rsp)
	movl	224(%rsp), %eax                 # 4-byte Reload
	movl	%eax, 2596(%rsp)
	movl	160(%rsp), %eax                 # 4-byte Reload
	movl	%eax, 2600(%rsp)
	movq	40(%rsp), %rax                  # 8-byte Reload
	movl	%eax, 2604(%rsp)
	movl	%ecx, 2608(%rsp)
	movl	36(%rsp), %eax                  # 4-byte Reload
	movl	%eax, 2612(%rsp)
	movq	576(%rsp), %rax                 # 8-byte Reload
	movl	%eax, 2616(%rsp)
	movl	48(%rsp), %eax                  # 4-byte Reload
	movl	%eax, 2620(%rsp)
	movl	88(%rsp), %eax                  # 4-byte Reload
	movl	%eax, 2624(%rsp)
	vmovaps	1616(%rsp), %xmm0               # 16-byte Reload
	vmovss	%xmm0, 2628(%rsp)
	movl	%r15d, 2632(%rsp)
	movl	488(%rsp), %r14d                # 4-byte Reload
	movl	%r14d, 2636(%rsp)
	movl	%ebx, 2640(%rsp)
	movl	216(%rsp), %eax                 # 4-byte Reload
	movl	%eax, 2644(%rsp)
	movq	24(%rsp), %rax                  # 8-byte Reload
	movq	%rax, 2648(%rsp)
	movq	$0, 2656(%rsp)
	movq	96(%rsp), %rax                  # 8-byte Reload
	movq	%rax, 2664(%rsp)
	movq	$0, 2672(%rsp)
	movq	80(%rsp), %rax                  # 8-byte Reload
	movq	%rax, 2680(%rsp)
	movq	320(%rsp), %rax                 # 8-byte Reload
	movq	%rax, 2688(%rsp)
	leaq	train_cost_model.par_for.relu1_0_d_def__.s29.n.n.n(%rip), %rsi
	leaq	2592(%rsp), %r8
	xorl	%edi, %edi
	xorl	%edx, %edx
	movq	288(%rsp), %rcx                 # 8-byte Reload
                                        # kill: def $ecx killed $ecx killed $rcx
	callq	halide_do_par_for@PLT
	testl	%eax, %eax
	jne	.LBB0_313
# %bb.173:                              # %"consume f6_0_d_def__465"
	leal	(%r13,%r13,4), %eax
	leal	(%r13,%rax,4), %eax
	movq	352(%rsp), %rcx                 # 8-byte Reload
	movl	%ecx, 3224(%rsp)
	movl	224(%rsp), %ecx                 # 4-byte Reload
	movl	%ecx, 3228(%rsp)
	movl	160(%rsp), %ecx                 # 4-byte Reload
	movl	%ecx, 3232(%rsp)
	movq	40(%rsp), %rcx                  # 8-byte Reload
	movl	%ecx, 3236(%rsp)
	movq	448(%rsp), %rcx                 # 8-byte Reload
	movl	%ecx, 3240(%rsp)
	movl	36(%rsp), %ecx                  # 4-byte Reload
	movl	%ecx, 3244(%rsp)
	movq	576(%rsp), %rcx                 # 8-byte Reload
	movl	%ecx, 3248(%rsp)
	movl	48(%rsp), %ecx                  # 4-byte Reload
	movl	%ecx, 3252(%rsp)
	movl	88(%rsp), %ecx                  # 4-byte Reload
	movl	%ecx, 3256(%rsp)
	vmovaps	1616(%rsp), %xmm0               # 16-byte Reload
	vmovss	%xmm0, 3260(%rsp)
	addl	%r13d, %eax
	movl	%r15d, 3264(%rsp)
	movl	%r14d, 3268(%rsp)
	movl	%ebx, 3272(%rsp)
	movl	%eax, 480(%rsp)                 # 4-byte Spill
	movl	%eax, 3276(%rsp)
	movl	144(%rsp), %eax                 # 4-byte Reload
	movl	%eax, 3280(%rsp)
	movq	24(%rsp), %rax                  # 8-byte Reload
	movq	%rax, 3288(%rsp)
	movq	$0, 3296(%rsp)
	movq	96(%rsp), %rax                  # 8-byte Reload
	movq	%rax, 3304(%rsp)
	movq	$0, 3312(%rsp)
	movq	80(%rsp), %rax                  # 8-byte Reload
	movq	%rax, 3320(%rsp)
	movq	320(%rsp), %rax                 # 8-byte Reload
	movq	%rax, 3328(%rsp)
	leaq	train_cost_model.par_for.relu1_0_d_def__.s30.n.n.n(%rip), %rsi
	leaq	3224(%rsp), %r8
	xorl	%edi, %edi
	xorl	%edx, %edx
	movq	288(%rsp), %rcx                 # 8-byte Reload
                                        # kill: def $ecx killed $ecx killed $rcx
	callq	halide_do_par_for@PLT
	testl	%eax, %eax
	jne	.LBB0_315
# %bb.174:                              # %"consume f6_0_d_def__468"
	movl	%ebx, %r13d
	movq	352(%rsp), %rax                 # 8-byte Reload
	movl	%eax, 2696(%rsp)
	movl	224(%rsp), %eax                 # 4-byte Reload
	movl	%eax, 2700(%rsp)
	movl	160(%rsp), %eax                 # 4-byte Reload
	movl	%eax, 2704(%rsp)
	movq	40(%rsp), %rax                  # 8-byte Reload
	movl	%eax, 2708(%rsp)
	movq	448(%rsp), %rbx                 # 8-byte Reload
	movl	%ebx, 2712(%rsp)
	movl	36(%rsp), %eax                  # 4-byte Reload
	movl	%eax, 2716(%rsp)
	movq	576(%rsp), %rax                 # 8-byte Reload
	movl	%eax, 2720(%rsp)
	movl	48(%rsp), %eax                  # 4-byte Reload
	movl	%eax, 2724(%rsp)
	movl	88(%rsp), %eax                  # 4-byte Reload
	movl	%eax, 2728(%rsp)
	vmovaps	1616(%rsp), %xmm0               # 16-byte Reload
	vmovss	%xmm0, 2732(%rsp)
	movl	%r15d, 2736(%rsp)
	movl	%r14d, 2740(%rsp)
	movl	%r13d, 2744(%rsp)
	movl	216(%rsp), %eax                 # 4-byte Reload
	movl	%eax, 2748(%rsp)
	movq	24(%rsp), %rax                  # 8-byte Reload
	movq	%rax, 2752(%rsp)
	movq	$0, 2760(%rsp)
	movq	96(%rsp), %rax                  # 8-byte Reload
	movq	%rax, 2768(%rsp)
	movq	$0, 2776(%rsp)
	movq	80(%rsp), %rax                  # 8-byte Reload
	movq	%rax, 2784(%rsp)
	movq	320(%rsp), %rax                 # 8-byte Reload
	movq	%rax, 2792(%rsp)
	leaq	train_cost_model.par_for.relu1_0_d_def__.s31.n.n.n(%rip), %rsi
	leaq	2696(%rsp), %r8
	xorl	%edi, %edi
	xorl	%edx, %edx
	movq	288(%rsp), %rcx                 # 8-byte Reload
                                        # kill: def $ecx killed $ecx killed $rcx
	callq	halide_do_par_for@PLT
	testl	%eax, %eax
	jne	.LBB0_315
# %bb.175:                              # %"consume f6_0_d_def__471"
	movq	352(%rsp), %rax                 # 8-byte Reload
	movl	%eax, 3336(%rsp)
	movl	224(%rsp), %eax                 # 4-byte Reload
	movl	%eax, 3340(%rsp)
	movl	160(%rsp), %eax                 # 4-byte Reload
	movl	%eax, 3344(%rsp)
	movq	40(%rsp), %rax                  # 8-byte Reload
	movl	%eax, 3348(%rsp)
	movl	%ebx, 3352(%rsp)
	movl	36(%rsp), %eax                  # 4-byte Reload
	movl	%eax, 3356(%rsp)
	movq	576(%rsp), %rax                 # 8-byte Reload
	movl	%eax, 3360(%rsp)
	movl	48(%rsp), %eax                  # 4-byte Reload
	movl	%eax, 3364(%rsp)
	movl	88(%rsp), %eax                  # 4-byte Reload
	movl	%eax, 3368(%rsp)
	vmovaps	1616(%rsp), %xmm0               # 16-byte Reload
	vmovss	%xmm0, 3372(%rsp)
	movl	%r15d, 3376(%rsp)
	movl	%r14d, 3380(%rsp)
	movl	%r13d, 3384(%rsp)
	movl	480(%rsp), %eax                 # 4-byte Reload
	movl	%eax, 3388(%rsp)
	movl	144(%rsp), %eax                 # 4-byte Reload
	movl	%eax, 3392(%rsp)
	movq	24(%rsp), %rax                  # 8-byte Reload
	movq	%rax, 3400(%rsp)
	movq	$0, 3408(%rsp)
	movq	96(%rsp), %rax                  # 8-byte Reload
	movq	%rax, 3416(%rsp)
	movq	$0, 3424(%rsp)
	movq	80(%rsp), %rax                  # 8-byte Reload
	movq	%rax, 3432(%rsp)
	movq	320(%rsp), %rax                 # 8-byte Reload
	movq	%rax, 3440(%rsp)
	leaq	train_cost_model.par_for.relu1_0_d_def__.s32.n.n.n(%rip), %rsi
	xorl	%r15d, %r15d
	leaq	3336(%rsp), %r8
	xorl	%edi, %edi
	xorl	%edx, %edx
	movq	288(%rsp), %rcx                 # 8-byte Reload
                                        # kill: def $ecx killed $ecx killed $rcx
	callq	halide_do_par_for@PLT
	testl	%eax, %eax
	jne	.LBB0_369
# %bb.176:                              # %call_destructor.exit880
	movl	%r13d, 872(%rsp)                # 4-byte Spill
	movq	528(%rsp), %rbx                 # 8-byte Reload
	movl	%ebx, %r14d
	xorl	%edi, %edi
	movq	24(%rsp), %rsi                  # 8-byte Reload
	callq	halide_free@PLT
	shlq	$2, %rbx
	cmpl	$536870912, %r14d               # imm = 0x20000000
	leaq	7328(%rsp), %r14
	jae	.LBB0_370
# %bb.177:                              # %"assert succeeded475"
	addq	$4, %rbx
	xorl	%edi, %edi
	movq	%rbx, %rsi
	callq	halide_malloc@PLT
	testq	%rax, %rax
	movq	352(%rsp), %rbx                 # 8-byte Reload
	je	.LBB0_371
# %bb.178:                              # %"assert succeeded477"
	movq	576(%rsp), %rdx                 # 8-byte Reload
	movl	%edx, %ecx
	sarl	$31, %ecx
	andnl	%edx, %ecx, %ecx
	movl	%ebx, %edx
	sarl	$3, %edx
	movl	%ebx, %esi
	sarl	$31, %esi
	movl	%esi, 288(%rsp)                 # 4-byte Spill
	andnl	%edx, %esi, %edx
	movl	%ebx, 6568(%rsp)
	movl	%edx, 24(%rsp)                  # 4-byte Spill
	movl	%edx, 6572(%rsp)
	movq	%r14, 6576(%rsp)
	movq	$0, 6584(%rsp)
	movq	%rax, 320(%rsp)                 # 8-byte Spill
	movq	%rax, 6592(%rsp)
	movq	$0, 6600(%rsp)
	leaq	train_cost_model.par_for.sum_1_d_def__.s0.n.n(%rip), %rsi
	leaq	6568(%rsp), %r8
	xorl	%edi, %edi
	xorl	%edx, %edx
	movl	%ecx, 1344(%rsp)                # 4-byte Spill
	callq	halide_do_par_for@PLT
	testl	%eax, %eax
	movq	40(%rsp), %rcx                  # 8-byte Reload
	jne	.LBB0_374
# %bb.179:                              # %"assert succeeded480"
	cmpl	$3, %ebx
	movl	$2, %eax
	cmovll	%ebx, %eax
	movl	1824(%rsp), %edx                # 4-byte Reload
	andl	$-2, %edx
	addl	%eax, %edx
	cmpl	%ebx, %edx
	cmovll	%ebx, %edx
	movq	448(%rsp), %rax                 # 8-byte Reload
	cmpl	%eax, %edx
	cmovll	%eax, %edx
	movl	%ecx, %r15d
	sarl	$31, %r15d
	andnl	%ecx, %r15d, %r12d
	movl	%edx, %eax
	sarl	$31, %eax
	movl	%edx, 1824(%rsp)                # 4-byte Spill
	andnl	%edx, %eax, %eax
	movq	%r12, %rbx
	shlq	$7, %rbx
	movq	%rbx, %rdx
	imulq	%rax, %rdx
	movl	$2147483648, %ecx               # imm = 0x80000000
	cmpq	%rcx, %rdx
	movq	96(%rsp), %r13                  # 8-byte Reload
	jae	.LBB0_328
# %bb.180:                              # %"assert succeeded480"
	movq	%r12, %rcx
	shrq	$25, %rcx
	movl	%ebx, %esi
	imulq	%rax, %rsi
	shrq	$32, %rsi
	imulq	%rax, %rcx
	addq	%rsi, %rcx
	movabsq	$270582939648, %rax             # imm = 0x3F00000000
	andq	%rax, %rcx
	jne	.LBB0_328
# %bb.181:                              # %"assert succeeded482"
	orq	$4, %rdx
	xorl	%edi, %edi
	movq	%rdx, %rsi
	callq	halide_malloc@PLT
	testq	%rax, %rax
	movl	1568(%rsp), %r8d                # 4-byte Reload
	movl	200(%rsp), %esi                 # 4-byte Reload
	movl	24(%rsp), %edx                  # 4-byte Reload
	movl	48(%rsp), %r9d                  # 4-byte Reload
	je	.LBB0_375
# %bb.182:                              # %"assert succeeded484"
	movq	576(%rsp), %rdi                 # 8-byte Reload
	subl	%edx, %edi
	movl	%edi, %ecx
	sarl	$31, %ecx
	andnl	%edi, %ecx, %edi
	movq	352(%rsp), %rcx                 # 8-byte Reload
	movl	%ecx, 6184(%rsp)
	movl	%esi, 6188(%rsp)
	movl	1824(%rsp), %ecx                # 4-byte Reload
	movl	%ecx, 6192(%rsp)
	movq	40(%rsp), %rcx                  # 8-byte Reload
	movl	%ecx, 6196(%rsp)
	movq	448(%rsp), %rsi                 # 8-byte Reload
	movl	%esi, 6200(%rsp)
	movl	%r15d, %esi
	andl	%ecx, %esi
	movl	%esi, 576(%rsp)                 # 4-byte Spill
	movl	%esi, 6204(%rsp)
	movl	%r12d, 6208(%rsp)
	movl	%r8d, 6212(%rsp)
	movl	%r9d, 6216(%rsp)
	movl	%edi, 6220(%rsp)
	movl	%edx, 6224(%rsp)
	movq	72(%rsp), %rcx                  # 8-byte Reload
	movq	%rcx, 6232(%rsp)
	movq	$0, 6240(%rsp)
	movq	%rax, 160(%rsp)                 # 8-byte Spill
	movq	%rax, 6248(%rsp)
	movq	$0, 6256(%rsp)
	movq	%r13, 6264(%rsp)
	movq	$0, 6272(%rsp)
	movq	320(%rsp), %r14                 # 8-byte Reload
	movq	%r14, 6280(%rsp)
	movq	$0, 6288(%rsp)
	leaq	train_cost_model.par_for.conv1_stage2_1_d_def__.s0.c.c(%rip), %rsi
	leaq	6184(%rsp), %r8
	xorl	%edi, %edi
	xorl	%edx, %edx
	movl	$16, %ecx
	callq	halide_do_par_for@PLT
                                        # kill: def $eax killed $eax def $rax
	testl	%eax, %eax
	jne	.LBB0_377
# %bb.183:                              # %call_destructor.exit882
	xorl	%edi, %edi
	movq	%r13, %rsi
	callq	halide_free@PLT
	xorl	%edi, %edi
	movq	%r14, %rsi
	callq	halide_free@PLT
	cmpl	$16777216, %r12d                # imm = 0x1000000
	jae	.LBB0_378
# %bb.184:                              # %"assert succeeded489"
	movq	%r12, 48(%rsp)                  # 8-byte Spill
	orq	$4, %rbx
	xorl	%edi, %edi
	movq	%rbx, %rsi
	callq	halide_malloc@PLT
	testq	%rax, %rax
	je	.LBB0_379
# %bb.185:                              # %"assert succeeded491"
	movq	%rax, %r13
	movq	40(%rsp), %rbx                  # 8-byte Reload
	movl	%ebx, %eax
	sarl	$3, %eax
	andnl	%eax, %r15d, %r15d
	leal	7(%rbx), %eax
	sarl	$3, %eax
	subl	%r15d, %eax
	movl	%eax, %ecx
	sarl	$31, %ecx
	andnl	%eax, %ecx, %r14d
	movl	%ebx, 5568(%rsp)
	movl	%r14d, 5572(%rsp)
	movl	%r15d, 5576(%rsp)
	movq	%r13, 5584(%rsp)
	movq	$0, 5592(%rsp)
	leaq	train_cost_model.par_for.conv1_stage1_1_d_def__.s0.c(%rip), %rsi
	leaq	5568(%rsp), %r8
	xorl	%edi, %edi
	xorl	%edx, %edx
	movl	$32, %ecx
	callq	halide_do_par_for@PLT
	testl	%eax, %eax
	jne	.LBB0_381
# %bb.186:                              # %"consume conv1_stage2_1_d_def__"
	movq	352(%rsp), %rdi                 # 8-byte Reload
	leal	1(%rdi), %eax
	movl	%eax, %ecx
	sarl	%ecx
	movl	%edi, %edx
	sarl	%edx
	movl	288(%rsp), %esi                 # 4-byte Reload
	andnl	%edx, %esi, %edx
	sarl	$31, %eax
	andnl	%ecx, %eax, %eax
	subl	%edx, %ecx
	movl	%ecx, %esi
	sarl	$31, %esi
	andnl	%ecx, %esi, %ecx
	movl	%edi, 2464(%rsp)
	movl	1824(%rsp), %esi                # 4-byte Reload
	movl	%esi, 2468(%rsp)
	movl	%ebx, 2472(%rsp)
	movl	%ecx, 2476(%rsp)
	movl	%r14d, 2480(%rsp)
	movl	%eax, 2484(%rsp)
	movl	%edx, 2488(%rsp)
	movl	%r15d, 2492(%rsp)
	movq	%r13, 224(%rsp)                 # 8-byte Spill
	movq	%r13, 2496(%rsp)
	movq	$0, 2504(%rsp)
	movq	160(%rsp), %rax                 # 8-byte Reload
	movq	%rax, 2512(%rsp)
	movq	$0, 2520(%rsp)
	leaq	train_cost_model.par_for.conv1_stage1_1_d_def__.s1.c(%rip), %rsi
	xorl	%r14d, %r14d
	leaq	2464(%rsp), %r8
	xorl	%edi, %edi
	xorl	%edx, %edx
	movl	$32, %ecx
	callq	halide_do_par_for@PLT
	testl	%eax, %eax
	jne	.LBB0_331
# %bb.187:                              # %"assert succeeded497"
	movq	48(%rsp), %rbx                  # 8-byte Reload
	shlq	$5, %rbx
	leaq	4(%rbx), %rsi
	xorl	%edi, %edi
	callq	halide_malloc@PLT
	testq	%rax, %rax
	movq	560(%rsp), %r14                 # 8-byte Reload
	movl	432(%rsp), %r13d                # 4-byte Reload
	je	.LBB0_330
# %bb.188:                              # %"assert succeeded499"
	movq	%rax, 5600(%rsp)
	movq	$0, 5608(%rsp)
	leaq	train_cost_model.par_for.head1_conv_1_d_def__.s0.w(%rip), %rsi
	movq	%rax, %r12
	leaq	5600(%rsp), %r8
	xorl	%edi, %edi
	xorl	%edx, %edx
	movq	40(%rsp), %r15                  # 8-byte Reload
	movl	%r15d, %ecx
	callq	halide_do_par_for@PLT
                                        # kill: def $eax killed $eax def $rax
	testl	%eax, %eax
	movq	%r12, 528(%rsp)                 # 8-byte Spill
	jne	.LBB0_383
# %bb.189:                              # %"consume conv1_stage1_1_d_def__"
	movq	%rbx, 96(%rsp)                  # 8-byte Spill
	movl	%r13d, 7056(%rsp)
	movl	%r15d, 7060(%rsp)
	movq	224(%rsp), %rax                 # 8-byte Reload
	movq	%rax, 7064(%rsp)
	movq	$0, 7072(%rsp)
	movq	%r14, 7080(%rsp)
	movq	40(%rbp), %rax
	movq	%rax, 7088(%rsp)
	movq	%r12, 7096(%rsp)
	movq	$0, 7104(%rsp)
	leaq	train_cost_model.par_for.head1_conv_1_d_def__.s1.w(%rip), %rsi
	leaq	7056(%rsp), %r8
	xorl	%edi, %edi
	xorl	%edx, %edx
	movl	%r15d, %ecx
	callq	halide_do_par_for@PLT
                                        # kill: def $eax killed $eax def $rax
	testl	%eax, %eax
	jne	.LBB0_383
# %bb.190:                              # %"consume head1_conv_1_d_def__"
	movq	1400(%rsp), %rdx                # 8-byte Reload
	leal	(%rdx,%rdx), %eax
	leal	(%rax,%rax,2), %eax
	subl	1328(%rsp), %eax                # 4-byte Folded Reload
	subl	504(%rsp), %eax                 # 4-byte Folded Reload
	subl	544(%rsp), %eax                 # 4-byte Folded Reload
	movl	512(%rsp), %ecx                 # 4-byte Reload
	movl	%ecx, 5904(%rsp)
	movl	416(%rsp), %ecx                 # 4-byte Reload
	movl	%ecx, 5908(%rsp)
	movl	%r15d, 5912(%rsp)
	movl	%edx, 5916(%rsp)
	movl	1392(%rsp), %ecx                # 4-byte Reload
	movl	%ecx, 5920(%rsp)
	movl	576(%rsp), %ecx                 # 4-byte Reload
	movl	%ecx, 5924(%rsp)
	movq	48(%rsp), %rcx                  # 8-byte Reload
	movl	%ecx, 5928(%rsp)
	movl	960(%rsp), %ecx                 # 4-byte Reload
	movl	%ecx, 5932(%rsp)
	movq	1336(%rsp), %rbx                # 8-byte Reload
	leal	(%rbx,%rbx,2), %ecx
	movl	%ecx, 320(%rsp)                 # 4-byte Spill
	movl	%ecx, 5936(%rsp)
	movl	%eax, 5940(%rsp)
	movq	1992(%rsp), %r13                # 8-byte Reload
	leal	(%rbx,%r13,2), %eax
	leal	(%rax,%rax,2), %eax
	movl	%eax, 5944(%rsp)
	movl	520(%rsp), %eax                 # 4-byte Reload
	movl	%eax, 5948(%rsp)
	movl	%r13d, 5952(%rsp)
	movq	%r12, 5960(%rsp)
	movq	$0, 5968(%rsp)
	movq	552(%rsp), %rax                 # 8-byte Reload
	movq	%rax, 5976(%rsp)
	movq	648(%rsp), %r12                 # 8-byte Reload
	movq	%r12, 5984(%rsp)
	movq	1408(%rsp), %rax                # 8-byte Reload
	movq	%rax, 5992(%rsp)
	movq	440(%rsp), %rax                 # 8-byte Reload
	movq	%rax, 6000(%rsp)
	movq	1416(%rsp), %r14                # 8-byte Reload
	movq	%r14, 6008(%rsp)
	movq	80(%rbp), %r15
	movq	%r15, 6016(%rsp)
	leaq	train_cost_model.par_for.updated_head1_filter.s1.v241.v241.v241(%rip), %rsi
	leaq	5904(%rsp), %r8
	xorl	%edi, %edi
	xorl	%edx, %edx
	movl	$80, %ecx
	callq	halide_do_par_for@PLT
                                        # kill: def $eax killed $eax def $rax
	testl	%eax, %eax
	jne	.LBB0_383
# %bb.191:                              # %"assert succeeded505"
	movl	520(%rsp), %eax                 # 4-byte Reload
	movl	%eax, 5616(%rsp)
	movl	%r13d, 5620(%rsp)
	movl	%ebx, 5624(%rsp)
	movq	%r14, 5632(%rsp)
	movq	%r15, 5640(%rsp)
	leaq	train_cost_model.par_for.updated_head1_filter.s2.v241.v241.v241(%rip), %rsi
	leaq	5616(%rsp), %r8
	xorl	%edi, %edi
	xorl	%edx, %edx
	movl	$80, %ecx
	callq	halide_do_par_for@PLT
                                        # kill: def $eax killed $eax def $rax
	testl	%eax, %eax
	jne	.LBB0_383
# %bb.192:                              # %"assert succeeded507"
	leal	(%rbx,%rbx), %eax
	movl	320(%rsp), %ecx                 # 4-byte Reload
	movl	%ecx, 2224(%rsp)
	movl	%eax, 2228(%rsp)
	movl	520(%rsp), %eax                 # 4-byte Reload
	movl	%eax, 2232(%rsp)
	movl	%r13d, 2236(%rsp)
	movq	%r14, 2240(%rsp)
	movq	%r15, 2248(%rsp)
	leaq	train_cost_model.par_for.updated_head1_filter.s3.v241.v241.v241(%rip), %rsi
	leaq	2224(%rsp), %r8
	xorl	%edi, %edi
	xorl	%edx, %edx
	movl	$80, %ecx
	callq	halide_do_par_for@PLT
                                        # kill: def $eax killed $eax def $rax
	testl	%eax, %eax
	jne	.LBB0_383
# %bb.193:                              # %"assert succeeded509"
	movq	%r13, %rsi
	movl	56(%rbp), %eax
	incl	%eax
	vcvtsi2ss	%eax, %xmm0, %xmm3
	vmulss	.LCPI0_81(%rip), %xmm3, %xmm0
	vroundss	$9, %xmm0, %xmm0, %xmm4
	vcvttss2si	%xmm4, %eax
	vmovss	.LCPI0_84(%rip), %xmm1          # xmm1 = mem[0],zero,zero,zero
	vmovss	.LCPI0_87(%rip), %xmm2          # xmm2 = mem[0],zero,zero,zero
	vmovss	.LCPI0_88(%rip), %xmm0          # xmm0 = mem[0],zero,zero,zero
	cmpl	$127, %eax
	movq	40(%rsp), %r13                  # 8-byte Reload
	jg	.LBB0_195
# %bb.194:                              # %select.true.sink
	vmulss	.LCPI0_82(%rip), %xmm4, %xmm4
	vfmadd231ss	.LCPI0_83(%rip), %xmm3, %xmm4 # xmm4 = (xmm3 * mem) + xmm4
	vmulss	%xmm4, %xmm4, %xmm5
	movl	%eax, %ecx
	shll	$23, %ecx
	addl	$1065353216, %ecx               # imm = 0x3F800000
	vmovss	.LCPI0_85(%rip), %xmm6          # xmm6 = mem[0],zero,zero,zero
	vfmadd231ss	%xmm1, %xmm5, %xmm6     # xmm6 = (xmm5 * xmm1) + xmm6
	vfmadd213ss	.LCPI0_86(%rip), %xmm5, %xmm6 # xmm6 = (xmm5 * xmm6) + mem
	vmovss	.LCPI0_89(%rip), %xmm7          # xmm7 = mem[0],zero,zero,zero
	vfmadd231ss	%xmm0, %xmm5, %xmm7     # xmm7 = (xmm5 * xmm0) + xmm7
	vfmadd213ss	.LCPI0_90(%rip), %xmm5, %xmm7 # xmm7 = (xmm5 * xmm7) + mem
	vfmadd213ss	%xmm2, %xmm5, %xmm6     # xmm6 = (xmm5 * xmm6) + xmm2
	vfmadd213ss	%xmm2, %xmm5, %xmm7     # xmm7 = (xmm5 * xmm7) + xmm2
	vfmadd231ss	%xmm6, %xmm4, %xmm7     # xmm7 = (xmm4 * xmm6) + xmm7
	vmovd	%ecx, %xmm4
	vfmadd213ss	.LCPI0_91(%rip), %xmm7, %xmm4 # xmm4 = (xmm7 * xmm4) + mem
	vmovss	.LCPI0_91(%rip), %xmm5          # xmm5 = mem[0],zero,zero,zero
	vdivss	%xmm4, %xmm5, %xmm4
	jmp	.LBB0_196
.LBB0_195:
	vmovss	.LCPI0_92(%rip), %xmm4          # xmm4 = mem[0],zero,zero,zero
.LBB0_196:                              # %select.end
	vmovaps	%xmm4, 320(%rsp)                # 16-byte Spill
	movq	80(%rbp), %rdx
	movq	1336(%rsp), %rdi                # 8-byte Reload
	vmovss	.LCPI0_91(%rip), %xmm4          # xmm4 = mem[0],zero,zero,zero
	cmpl	$-127, %eax
	jg	.LBB0_198
# %bb.197:                              # %select.end
	vmovaps	%xmm4, %xmm5
	vmovaps	%xmm4, 320(%rsp)                # 16-byte Spill
.LBB0_198:                              # %select.end
	vmulss	.LCPI0_93(%rip), %xmm3, %xmm5
	vroundss	$9, %xmm5, %xmm5, %xmm5
	vcvttss2si	%xmm5, %eax
	cmpl	$127, %eax
	jg	.LBB0_200
# %bb.199:                              # %select.true.sink746
	vmulss	.LCPI0_82(%rip), %xmm5, %xmm5
	vfmadd231ss	.LCPI0_94(%rip), %xmm3, %xmm5 # xmm5 = (xmm3 * mem) + xmm5
	vmulss	%xmm5, %xmm5, %xmm3
	movl	%eax, %ecx
	shll	$23, %ecx
	vfmadd213ss	.LCPI0_85(%rip), %xmm3, %xmm1 # xmm1 = (xmm3 * xmm1) + mem
	vfmadd213ss	.LCPI0_86(%rip), %xmm3, %xmm1 # xmm1 = (xmm3 * xmm1) + mem
	addl	$1065353216, %ecx               # imm = 0x3F800000
	vfmadd213ss	%xmm2, %xmm3, %xmm1     # xmm1 = (xmm3 * xmm1) + xmm2
	vfmadd213ss	.LCPI0_89(%rip), %xmm3, %xmm0 # xmm0 = (xmm3 * xmm0) + mem
	vfmadd213ss	.LCPI0_90(%rip), %xmm3, %xmm0 # xmm0 = (xmm3 * xmm0) + mem
	vfmadd213ss	%xmm2, %xmm3, %xmm0     # xmm0 = (xmm3 * xmm0) + xmm2
	vfmadd231ss	%xmm1, %xmm5, %xmm0     # xmm0 = (xmm5 * xmm1) + xmm0
	vmovd	%ecx, %xmm1
	vfmadd213ss	%xmm4, %xmm0, %xmm1     # xmm1 = (xmm0 * xmm1) + xmm4
	vmovss	.LCPI0_91(%rip), %xmm0          # xmm0 = mem[0],zero,zero,zero
	vdivss	%xmm1, %xmm0, %xmm0
	vmovss	%xmm0, 448(%rsp)                # 4-byte Spill
	movl	520(%rsp), %ecx                 # 4-byte Reload
	cmpl	$-127, %eax
	jle	.LBB0_201
	jmp	.LBB0_202
.LBB0_200:
	vmovss	.LCPI0_92(%rip), %xmm0          # xmm0 = mem[0],zero,zero,zero
	vmovss	%xmm0, 448(%rsp)                # 4-byte Spill
	movl	520(%rsp), %ecx                 # 4-byte Reload
	cmpl	$-127, %eax
	jg	.LBB0_202
.LBB0_201:                              # %select.end745
	vmovss	.LCPI0_91(%rip), %xmm0          # xmm0 = mem[0],zero,zero,zero
	vmovss	%xmm0, 448(%rsp)                # 4-byte Spill
.LBB0_202:                              # %select.end745
	movl	432(%rsp), %r15d                # 4-byte Reload
	movl	512(%rsp), %eax                 # 4-byte Reload
	movl	%eax, 2528(%rsp)
	movl	416(%rsp), %eax                 # 4-byte Reload
	movl	%eax, 2532(%rsp)
	vmovss	1952(%rsp), %xmm0               # 4-byte Reload
                                        # xmm0 = mem[0],zero,zero,zero
	vmovss	%xmm0, 2536(%rsp)
	vmovss	448(%rsp), %xmm0                # 4-byte Reload
                                        # xmm0 = mem[0],zero,zero,zero
	vmovss	%xmm0, 2540(%rsp)
	vmovaps	320(%rsp), %xmm0                # 16-byte Reload
	vmovss	%xmm0, 2544(%rsp)
	movl	%ecx, 2548(%rsp)
	movl	%esi, 2552(%rsp)
	movl	%edi, 2556(%rsp)
	movq	552(%rsp), %rax                 # 8-byte Reload
	movq	%rax, 2560(%rsp)
	movq	%r12, 2568(%rsp)
	movq	1416(%rsp), %rax                # 8-byte Reload
	movq	%rax, 2576(%rsp)
	movq	%rdx, 2584(%rsp)
	leaq	train_cost_model.par_for.updated_head1_filter.s4.v241.v241.v241(%rip), %rsi
	leaq	2528(%rsp), %r8
	xorl	%edi, %edi
	xorl	%edx, %edx
	movl	$80, %ecx
	callq	halide_do_par_for@PLT
	testl	%eax, %eax
	jne	.LBB0_388
# %bb.203:                              # %"produce head1_bias_im_0_d_def__"
	vxorps	%xmm0, %xmm0, %xmm0
	vmovaps	%ymm0, 7328(%rsp)
	movl	%r13d, %ebx
	testl	%r13d, %r13d
	movq	496(%rsp), %r14                 # 8-byte Reload
	movq	528(%rsp), %rsi                 # 8-byte Reload
	jle	.LBB0_212
# %bb.204:                              # %"for head1_bias_im_0_d_def__.s1.r1255$x.preheader"
	leaq	-1(%rbx), %rcx
	movl	%ebx, %eax
	andl	$7, %eax
	cmpq	$7, %rcx
	jae	.LBB0_206
# %bb.205:
	xorl	%ecx, %ecx
	jmp	.LBB0_208
.LBB0_206:                              # %"for head1_bias_im_0_d_def__.s1.r1255$x.preheader.new"
	movl	%ebx, %edx
	andl	$-8, %edx
	leaq	224(%rsi), %rdi
	vxorps	%xmm0, %xmm0, %xmm0
	xorl	%ecx, %ecx
	.p2align	4, 0x90
.LBB0_207:                              # %"for head1_bias_im_0_d_def__.s1.r1255$x"
                                        # =>This Inner Loop Header: Depth=1
	vaddps	-224(%rdi), %ymm0, %ymm0
	vaddps	-192(%rdi), %ymm0, %ymm0
	vaddps	-160(%rdi), %ymm0, %ymm0
	vaddps	-128(%rdi), %ymm0, %ymm0
	vaddps	-96(%rdi), %ymm0, %ymm0
	vaddps	-64(%rdi), %ymm0, %ymm0
	vaddps	-32(%rdi), %ymm0, %ymm0
	vaddps	(%rdi), %ymm0, %ymm0
	addq	$8, %rcx
	addq	$256, %rdi                      # imm = 0x100
	cmpq	%rcx, %rdx
	jne	.LBB0_207
.LBB0_208:                              # %call_destructor.exit884.loopexit.unr-lcssa
	testq	%rax, %rax
	je	.LBB0_211
# %bb.209:                              # %"for head1_bias_im_0_d_def__.s1.r1255$x.epil.preheader"
	shlq	$5, %rcx
	movq	%rsi, %rdx
	addq	%rcx, %rdx
	.p2align	4, 0x90
.LBB0_210:                              # %"for head1_bias_im_0_d_def__.s1.r1255$x.epil"
                                        # =>This Inner Loop Header: Depth=1
	vaddps	(%rdx), %ymm0, %ymm0
	addq	$32, %rdx
	decq	%rax
	jne	.LBB0_210
.LBB0_211:                              # %call_destructor.exit884.loopexit
	vmovaps	%ymm0, 7328(%rsp)
.LBB0_212:                              # %call_destructor.exit884
	xorl	%edi, %edi
	vzeroupper
	callq	halide_free@PLT
	vmovaps	7328(%rsp), %ymm0
	movq	2000(%rsp), %rdx                # 8-byte Reload
	leaq	(%rdx,%rdx,2), %rax
	movq	2008(%rsp), %rcx                # 8-byte Reload
	vmovups	%ymm0, (%rcx,%rax,4)
	vbroadcastss	.LCPI0_95(%rip), %ymm1  # ymm1 = [8.99999976E-1,8.99999976E-1,8.99999976E-1,8.99999976E-1,8.99999976E-1,8.99999976E-1,8.99999976E-1,8.99999976E-1]
	vmulps	(%rcx,%rdx,4), %ymm1, %ymm1
	vbroadcastss	.LCPI0_96(%rip), %ymm2  # ymm2 = [1.00000001E-1,1.00000001E-1,1.00000001E-1,1.00000001E-1,1.00000001E-1,1.00000001E-1,1.00000001E-1,1.00000001E-1]
	vfmadd213ps	%ymm1, %ymm0, %ymm2     # ymm2 = (ymm0 * ymm2) + ymm1
	vmovups	%ymm2, (%rcx,%rdx,4)
	vmovups	(%rcx,%rax,4), %ymm0
	vbroadcastss	.LCPI0_97(%rip), %ymm1  # ymm1 = [9.99000012E-1,9.99000012E-1,9.99000012E-1,9.99000012E-1,9.99000012E-1,9.99000012E-1,9.99000012E-1,9.99000012E-1]
	vmulps	%ymm0, %ymm0, %ymm0
	vbroadcastss	.LCPI0_98(%rip), %ymm2  # ymm2 = [1.00000005E-3,1.00000005E-3,1.00000005E-3,1.00000005E-3,1.00000005E-3,1.00000005E-3,1.00000005E-3,1.00000005E-3]
	vmulps	%ymm2, %ymm0, %ymm0
	vfmadd231ps	(%rcx,%rdx,8), %ymm1, %ymm0 # ymm0 = (ymm1 * mem) + ymm0
	vmovups	%ymm0, (%rcx,%rdx,8)
	vmovss	448(%rsp), %xmm1                # 4-byte Reload
                                        # xmm1 = mem[0],zero,zero,zero
	vmulss	1952(%rsp), %xmm1, %xmm1        # 4-byte Folded Reload
	vbroadcastss	%xmm1, %ymm1
	vmulps	(%rcx,%rdx,4), %ymm1, %ymm1
	vbroadcastss	320(%rsp), %ymm2        # 16-byte Folded Reload
	vmulps	%ymm0, %ymm2, %ymm0
	vsqrtps	%ymm0, %ymm0
	vbroadcastss	.LCPI0_99(%rip), %ymm2  # ymm2 = [-9.99999974E-6,-9.99999974E-6,-9.99999974E-6,-9.99999974E-6,-9.99999974E-6,-9.99999974E-6,-9.99999974E-6,-9.99999974E-6]
	vsubps	%ymm0, %ymm2, %ymm0
	vdivps	%ymm0, %ymm1, %ymm0
	movq	1432(%rsp), %rax                # 8-byte Reload
	vaddps	(%rax), %ymm0, %ymm0
	vmovups	%ymm0, (%rcx)
	movl	288(%rsp), %eax                 # 4-byte Reload
	andnl	352(%rsp), %eax, %esi           # 4-byte Folded Reload
	movq	96(%rsp), %rax                  # 8-byte Reload
	leaq	(%rax,%rax,2), %rax
	movq	%rax, %rdx
	imulq	%rsi, %rdx
	movl	$2147483648, %ecx               # imm = 0x80000000
	cmpq	%rcx, %rdx
	jae	.LBB0_329
# %bb.213:                              # %call_destructor.exit884
	movq	%rax, %rcx
	shrq	$32, %rcx
	movl	%eax, %eax
	imulq	%rsi, %rax
	shrq	$32, %rax
	imulq	%rsi, %rcx
	addq	%rax, %rcx
	movabsq	$545460846592, %rax             # imm = 0x7F00000000
	andq	%rax, %rcx
	jne	.LBB0_329
# %bb.214:                              # %"assert succeeded514"
	movq	%rsi, 96(%rsp)                  # 8-byte Spill
	movq	%rbx, 648(%rsp)                 # 8-byte Spill
	orq	$4, %rdx
	xorl	%edi, %edi
	movq	%rdx, %rsi
	vzeroupper
	callq	halide_malloc@PLT
	testq	%rax, %rax
	je	.LBB0_330
# %bb.215:                              # %"assert succeeded516"
	movq	%rax, %r12
	movq	352(%rsp), %rbx                 # 8-byte Reload
	leal	4(%rbx), %eax
	movl	%eax, %ecx
	sarl	$31, %ecx
	xorl	%ecx, %eax
	imulq	$1717986919, %rax, %rax         # imm = 0x66666667
	shrq	$33, %rax
	xorl	%ecx, %eax
	andnl	%eax, %ecx, %ecx
	movl	288(%rsp), %edx                 # 4-byte Reload
	movl	%edx, %eax
	xorl	%ebx, %eax
	imulq	$1717986919, %rax, %rax         # imm = 0x66666667
	shrq	$33, %rax
	xorl	%edx, %eax
	andnl	%eax, %edx, %eax
	movl	%ebx, 6688(%rsp)
	movl	1824(%rsp), %edx                # 4-byte Reload
	movl	%edx, 6692(%rsp)
	movl	%r15d, 6696(%rsp)
	movl	880(%rsp), %edx                 # 4-byte Reload
	movl	%edx, 6700(%rsp)
	movl	%r13d, 6704(%rsp)
	movl	%eax, 6708(%rsp)
	movl	576(%rsp), %eax                 # 4-byte Reload
	movl	%eax, 6712(%rsp)
	movq	48(%rsp), %rax                  # 8-byte Reload
	movl	%eax, 6716(%rsp)
	movl	%r14d, 6720(%rsp)
	movq	160(%rsp), %rax                 # 8-byte Reload
	movq	%rax, 6728(%rsp)
	movq	$0, 6736(%rsp)
	movq	560(%rsp), %rax                 # 8-byte Reload
	movq	%rax, 6744(%rsp)
	movq	40(%rbp), %rax
	movq	%rax, 6752(%rsp)
	movq	8(%rsp), %r15                   # 8-byte Reload
	movq	%r15, 6760(%rsp)
	movq	$0, 6768(%rsp)
	movq	%r12, 6776(%rsp)
	movq	$0, 6784(%rsp)
	leaq	train_cost_model.par_for.head2_conv_1_d_def__.s0.n.n(%rip), %rsi
	leaq	6688(%rsp), %r8
	xorl	%edi, %edi
	xorl	%edx, %edx
	callq	halide_do_par_for@PLT
                                        # kill: def $eax killed $eax def $rax
	testl	%eax, %eax
	jne	.LBB0_390
# %bb.216:                              # %call_destructor.exit885
	xorl	%edi, %edi
	movq	%r15, %rsi
	callq	halide_free@PLT
	movq	1424(%rsp), %rax                # 8-byte Reload
	leal	(%rax,%rax,2), %esi
	movl	888(%rsp), %edx                 # 4-byte Reload
	imull	$38, %edx, %eax
	subl	%r14d, %eax
	movl	1556(%rsp), %r13d               # 4-byte Reload
	imull	$38, %r13d, %ecx
	addl	%esi, %ecx
	movl	%ebx, 5648(%rsp)
	movl	%edx, 5652(%rsp)
	movq	40(%rsp), %rdx                  # 8-byte Reload
	movl	%edx, 5656(%rsp)
	movl	%eax, 5660(%rsp)
	movl	%ecx, 5664(%rsp)
	movl	%esi, 48(%rsp)                  # 4-byte Spill
	movl	%esi, 5668(%rsp)
	movl	%r14d, 5672(%rsp)
	movl	%r13d, 5676(%rsp)
	movq	%r12, 5680(%rsp)
	movq	$0, 5688(%rsp)
	movq	64(%rsp), %r15                  # 8-byte Reload
	movq	%r15, 5696(%rsp)
	movq	$0, 5704(%rsp)
	movq	2016(%rsp), %r14                # 8-byte Reload
	movq	%r14, 5712(%rsp)
	movq	96(%rbp), %rbx
	movq	%rbx, 5720(%rsp)
	leaq	train_cost_model.par_for.updated_head2_filter.s1.v246.v246.v246(%rip), %rsi
	leaq	5648(%rsp), %r8
	movl	$0, %edi
	xorl	%edx, %edx
	movl	$60, %ecx
	callq	halide_do_par_for@PLT
                                        # kill: def $eax killed $eax def $rax
	testl	%eax, %eax
	movq	%r12, 288(%rsp)                 # 8-byte Spill
	jne	.LBB0_391
# %bb.217:                              # %call_destructor.exit886
	xorl	%edi, %edi
	movq	%r15, %rsi
	callq	halide_free@PLT
	movl	%r13d, 2328(%rsp)
	movq	1424(%rsp), %rbx                # 8-byte Reload
	movl	%ebx, 2332(%rsp)
	movq	%r14, 2336(%rsp)
	movq	96(%rbp), %r15
	movq	%r15, 2344(%rsp)
	leaq	train_cost_model.par_for.updated_head2_filter.s2.v246.v246.v246(%rip), %rsi
	leaq	2328(%rsp), %r8
	movl	$0, %edi
	xorl	%edx, %edx
	movl	$60, %ecx
	callq	halide_do_par_for@PLT
	testl	%eax, %eax
	jne	.LBB0_317
# %bb.218:                              # %"assert succeeded525"
	leal	(%rbx,%rbx), %eax
	movl	48(%rsp), %ecx                  # 4-byte Reload
	movl	%ecx, 5728(%rsp)
	movl	%eax, 5732(%rsp)
	movl	%r13d, 5736(%rsp)
	movq	%r14, 5744(%rsp)
	movq	%r15, 5752(%rsp)
	leaq	train_cost_model.par_for.updated_head2_filter.s3.v246.v246.v246(%rip), %rsi
	leaq	5728(%rsp), %r8
	xorl	%edi, %edi
	xorl	%edx, %edx
	movl	$60, %ecx
	callq	halide_do_par_for@PLT
	testl	%eax, %eax
	jne	.LBB0_317
# %bb.219:                              # %"assert succeeded527"
	movl	1440(%rsp), %eax                # 4-byte Reload
	movl	%eax, 3448(%rsp)
	vmovss	1952(%rsp), %xmm0               # 4-byte Reload
                                        # xmm0 = mem[0],zero,zero,zero
	vmovss	%xmm0, 3452(%rsp)
	vmovss	448(%rsp), %xmm0                # 4-byte Reload
                                        # xmm0 = mem[0],zero,zero,zero
	vmovss	%xmm0, 3456(%rsp)
	vmovaps	320(%rsp), %xmm0                # 16-byte Reload
	vmovss	%xmm0, 3460(%rsp)
	movl	%r13d, 3464(%rsp)
	movl	%ebx, 3468(%rsp)
	movq	1448(%rsp), %rax                # 8-byte Reload
	movq	%rax, 3472(%rsp)
	movq	24(%rbp), %rax
	movq	%rax, 3480(%rsp)
	movq	%r14, 3488(%rsp)
	movq	%r15, 3496(%rsp)
	leaq	train_cost_model.par_for.updated_head2_filter.s4.v246.v246.v246(%rip), %rsi
	leaq	3448(%rsp), %r8
	xorl	%edi, %edi
	xorl	%edx, %edx
	movl	$60, %ecx
	callq	halide_do_par_for@PLT
	testl	%eax, %eax
	movq	40(%rsp), %r13                  # 8-byte Reload
	movq	2032(%rsp), %r14                # 8-byte Reload
	movq	2024(%rsp), %r15                # 8-byte Reload
	jne	.LBB0_317
# %bb.220:                              # %"consume head2_conv_1_d_def__530"
	leal	(%r15,%r15,2), %eax
	movq	352(%rsp), %rcx                 # 8-byte Reload
	movl	%ecx, 6792(%rsp)
	movl	%r13d, 6796(%rsp)
	movl	%eax, 6800(%rsp)
	movq	288(%rsp), %r12                 # 8-byte Reload
	movq	%r12, 6808(%rsp)
	movq	$0, 6816(%rsp)
	movq	%r14, 6824(%rsp)
	movq	104(%rbp), %rbx
	movq	%rbx, 6832(%rsp)
	leaq	train_cost_model.par_for.updated_head2_bias.s1.v249.v249(%rip), %rsi
	leaq	6792(%rsp), %r8
	xorl	%edi, %edi
	xorl	%edx, %edx
	movl	$3, %ecx
	callq	halide_do_par_for@PLT
                                        # kill: def $eax killed $eax def $rax
	testl	%eax, %eax
	jne	.LBB0_392
# %bb.221:                              # %call_destructor.exit887
	xorl	%edi, %edi
	movq	%r12, %rsi
	callq	halide_free@PLT
	movl	%r15d, 6840(%rsp)
	movq	%r14, 6848(%rsp)
	movq	%rbx, 6856(%rsp)
	leaq	train_cost_model.par_for.updated_head2_bias.s2.v249.v249(%rip), %rsi
	leaq	6840(%rsp), %r8
	movl	$0, %edi
	xorl	%edx, %edx
	movl	$3, %ecx
	callq	halide_do_par_for@PLT
	testl	%eax, %eax
	jne	.LBB0_332
# %bb.222:                              # %"assert succeeded534"
	movl	%r15d, 6864(%rsp)
	movq	%r14, 6872(%rsp)
	movq	%rbx, 6880(%rsp)
	leaq	train_cost_model.par_for.updated_head2_bias.s3.v249.v249(%rip), %rsi
	leaq	6864(%rsp), %r8
	xorl	%edi, %edi
	xorl	%edx, %edx
	movl	$3, %ecx
	callq	halide_do_par_for@PLT
	testl	%eax, %eax
	jne	.LBB0_332
# %bb.223:                              # %"assert succeeded536"
	vmovss	1952(%rsp), %xmm0               # 4-byte Reload
                                        # xmm0 = mem[0],zero,zero,zero
	vmovss	%xmm0, 5760(%rsp)
	vmovss	448(%rsp), %xmm0                # 4-byte Reload
                                        # xmm0 = mem[0],zero,zero,zero
	vmovss	%xmm0, 5764(%rsp)
	vmovaps	320(%rsp), %xmm0                # 16-byte Reload
	vmovss	%xmm0, 5768(%rsp)
	movl	%r15d, 5772(%rsp)
	movq	1456(%rsp), %rax                # 8-byte Reload
	movq	%rax, 5776(%rsp)
	movq	32(%rbp), %rax
	movq	%rax, 5784(%rsp)
	movq	%r14, 5792(%rsp)
	movq	%rbx, 5800(%rsp)
	leaq	train_cost_model.par_for.updated_head2_bias.s4.v249.v249(%rip), %rsi
	xorl	%r14d, %r14d
	leaq	5760(%rsp), %r8
	xorl	%edi, %edi
	xorl	%edx, %edx
	movl	$3, %ecx
	callq	halide_do_par_for@PLT
	testl	%eax, %eax
	jne	.LBB0_396
# %bb.224:                              # %"produce filter1_im_0_d_def__"
	leaq	7328(%rsp), %r13
	movq	%r13, 5808(%rsp)
	movq	$0, 5816(%rsp)
	leaq	train_cost_model.par_for.filter1_im_0_d_def__.s0.v18(%rip), %rsi
	leaq	5808(%rsp), %r8
	xorl	%edi, %edi
	xorl	%edx, %edx
	movl	$32, %ecx
	callq	halide_do_par_for@PLT
	testl	%eax, %eax
	movq	2048(%rsp), %r12                # 8-byte Reload
	jne	.LBB0_397
# %bb.225:                              # %"consume head2_relu542"
	movq	352(%rsp), %rax                 # 8-byte Reload
	movl	%eax, 6888(%rsp)
	movl	1824(%rsp), %eax                # 4-byte Reload
	movl	%eax, 6892(%rsp)
	movl	624(%rsp), %eax                 # 4-byte Reload
	movl	%eax, 6896(%rsp)
	movq	40(%rsp), %r15                  # 8-byte Reload
	movl	%r15d, 6900(%rsp)
	movq	496(%rsp), %rax                 # 8-byte Reload
	movl	%eax, 6904(%rsp)
	movq	160(%rsp), %r14                 # 8-byte Reload
	movq	%r14, 6912(%rsp)
	movq	$0, 6920(%rsp)
	movq	%r13, 6928(%rsp)
	movq	$0, 6936(%rsp)
	movq	56(%rsp), %rbx                  # 8-byte Reload
	movq	%rbx, 6944(%rsp)
	movq	$0, 6952(%rsp)
	leaq	train_cost_model.par_for.filter1_im_0_d_def__.s1.v18(%rip), %rsi
	leaq	6888(%rsp), %r8
	xorl	%edi, %edi
	xorl	%edx, %edx
	movl	$32, %ecx
	callq	halide_do_par_for@PLT
	testl	%eax, %eax
	jne	.LBB0_398
# %bb.226:                              # %call_destructor.exit889
	xorl	%edi, %edi
	movq	%rbx, %rsi
	callq	halide_free@PLT
	xorl	%edi, %edi
	movq	%r14, %rsi
	callq	halide_free@PLT
	movl	%r15d, 7208(%rsp)
	movq	224(%rsp), %rax                 # 8-byte Reload
	movq	%rax, 7216(%rsp)
	movq	$0, 7224(%rsp)
	movq	%r13, 7232(%rsp)
	movq	$0, 7240(%rsp)
	movq	896(%rsp), %rbx                 # 8-byte Reload
	movq	%rbx, 7248(%rsp)
	movq	$0, 7256(%rsp)
	leaq	train_cost_model.par_for.filter1_im_0_d_def__.s2.v18(%rip), %rsi
	leaq	7208(%rsp), %r8
	movl	$0, %edi
	xorl	%edx, %edx
	movl	$32, %ecx
	callq	halide_do_par_for@PLT
	testl	%eax, %eax
	jne	.LBB0_400
# %bb.227:                              # %call_destructor.exit890
	movq	%r13, %r15
	xorl	%edi, %edi
	movq	%rbx, %rsi
	callq	halide_free@PLT
	movq	2040(%rsp), %r14                # 8-byte Reload
	leal	(%r14,%r14,2), %ebx
	movl	%ebx, 6608(%rsp)
	movl	1560(%rsp), %r13d               # 4-byte Reload
	movl	%r13d, 6612(%rsp)
	movq	%r15, 6616(%rsp)
	movq	$0, 6624(%rsp)
	movq	%r12, 6632(%rsp)
	movq	112(%rbp), %r15
	movq	%r15, 6640(%rsp)
	leaq	train_cost_model.par_for.updated_filter1.s1.v251.v251.v251(%rip), %rsi
	leaq	6608(%rsp), %r8
	movl	$0, %edi
	xorl	%edx, %edx
	movl	$32, %ecx
	callq	halide_do_par_for@PLT
	testl	%eax, %eax
	jne	.LBB0_316
# %bb.228:                              # %"assert succeeded550"
	movl	%r13d, 2352(%rsp)
	movl	%r14d, 2356(%rsp)
	movq	%r12, 2360(%rsp)
	movq	%r15, 2368(%rsp)
	leaq	train_cost_model.par_for.updated_filter1.s2.v251.v251.v251(%rip), %rsi
	leaq	2352(%rsp), %r8
	xorl	%edi, %edi
	xorl	%edx, %edx
	movl	$32, %ecx
	callq	halide_do_par_for@PLT
	testl	%eax, %eax
	jne	.LBB0_316
# %bb.229:                              # %"assert succeeded552"
	leal	(%r14,%r14), %eax
	movl	%ebx, 5824(%rsp)
	movl	%eax, 5828(%rsp)
	movl	%r13d, 5832(%rsp)
	movq	%r12, 5840(%rsp)
	movq	%r15, 5848(%rsp)
	leaq	train_cost_model.par_for.updated_filter1.s3.v251.v251.v251(%rip), %rsi
	leaq	5824(%rsp), %r8
	xorl	%edi, %edi
	xorl	%edx, %edx
	movl	$32, %ecx
	callq	halide_do_par_for@PLT
	testl	%eax, %eax
	jne	.LBB0_316
# %bb.230:                              # %"assert succeeded554"
	movl	432(%rsp), %eax                 # 4-byte Reload
	movl	%eax, 3504(%rsp)
	vmovss	1952(%rsp), %xmm0               # 4-byte Reload
                                        # xmm0 = mem[0],zero,zero,zero
	vmovss	%xmm0, 3508(%rsp)
	vmovss	448(%rsp), %xmm0                # 4-byte Reload
                                        # xmm0 = mem[0],zero,zero,zero
	vmovss	%xmm0, 3512(%rsp)
	vmovaps	320(%rsp), %xmm0                # 16-byte Reload
	vmovss	%xmm0, 3516(%rsp)
	movl	%r13d, 3520(%rsp)
	movl	%r14d, 3524(%rsp)
	movq	560(%rsp), %rax                 # 8-byte Reload
	movq	%rax, 3528(%rsp)
	movq	40(%rbp), %rax
	movq	%rax, 3536(%rsp)
	movq	%r12, 3544(%rsp)
	movq	%r15, 3552(%rsp)
	leaq	train_cost_model.par_for.updated_filter1.s4.v251.v251.v251(%rip), %rsi
	leaq	3504(%rsp), %r8
	xorl	%edi, %edi
	xorl	%edx, %edx
	movl	$32, %ecx
	callq	halide_do_par_for@PLT
	testl	%eax, %eax
	movq	40(%rsp), %r15                  # 8-byte Reload
	jne	.LBB0_316
# %bb.231:                              # %"consume conv1_stage1_1_d_def__557"
	movq	2056(%rsp), %r12                # 8-byte Reload
	leal	(%r12,%r12,2), %eax
	movl	%r15d, 6648(%rsp)
	movl	%eax, 6652(%rsp)
	movq	224(%rsp), %r14                 # 8-byte Reload
	movq	%r14, 6656(%rsp)
	movq	$0, 6664(%rsp)
	movq	2064(%rsp), %rbx                # 8-byte Reload
	movq	%rbx, 6672(%rsp)
	movq	120(%rbp), %r13
	movq	%r13, 6680(%rsp)
	leaq	train_cost_model.par_for.updated_bias1.s1.v254.v254(%rip), %rsi
	leaq	6648(%rsp), %r8
	xorl	%edi, %edi
	xorl	%edx, %edx
	movl	$4, %ecx
	callq	halide_do_par_for@PLT
	testl	%eax, %eax
	jne	.LBB0_401
# %bb.232:                              # %call_destructor.exit891
	xorl	%edi, %edi
	movq	%r14, %rsi
	callq	halide_free@PLT
	movl	%r12d, 6960(%rsp)
	movq	%rbx, 6968(%rsp)
	movq	%r13, 6976(%rsp)
	leaq	train_cost_model.par_for.updated_bias1.s2.v254.v254(%rip), %rsi
	leaq	6960(%rsp), %r8
	movl	$0, %edi
	xorl	%edx, %edx
	movl	$4, %ecx
	callq	halide_do_par_for@PLT
	testl	%eax, %eax
	jne	.LBB0_402
# %bb.233:                              # %"assert succeeded561"
	movl	%r12d, 6984(%rsp)
	movq	%rbx, 6992(%rsp)
	movq	%r13, 7000(%rsp)
	leaq	train_cost_model.par_for.updated_bias1.s3.v254.v254(%rip), %rsi
	leaq	6984(%rsp), %r8
	xorl	%edi, %edi
	xorl	%edx, %edx
	movl	$4, %ecx
	callq	halide_do_par_for@PLT
	testl	%eax, %eax
	jne	.LBB0_318
# %bb.234:                              # %"assert succeeded563"
	vmovss	1952(%rsp), %xmm0               # 4-byte Reload
                                        # xmm0 = mem[0],zero,zero,zero
	vmovss	%xmm0, 5856(%rsp)
	vmovss	448(%rsp), %xmm0                # 4-byte Reload
                                        # xmm0 = mem[0],zero,zero,zero
	vmovss	%xmm0, 5860(%rsp)
	vmovaps	320(%rsp), %xmm0                # 16-byte Reload
	vmovss	%xmm0, 5864(%rsp)
	movl	%r12d, 5868(%rsp)
	movq	704(%rsp), %rax                 # 8-byte Reload
	movq	%rax, 5872(%rsp)
	movq	48(%rbp), %rax
	movq	%rax, 5880(%rsp)
	movq	%rbx, 5888(%rsp)
	movq	%r13, 5896(%rsp)
	leaq	train_cost_model.par_for.updated_bias1.s4.v254.v254(%rip), %rsi
	leaq	5856(%rsp), %r8
	xorl	%edi, %edi
	xorl	%edx, %edx
	movl	$4, %ecx
	callq	halide_do_par_for@PLT
	testl	%eax, %eax
	jne	.LBB0_318
# %bb.235:                              # %"consume f7566"
	movq	672(%rsp), %rcx                 # 8-byte Reload
	movl	%ecx, %eax
	sarl	$31, %eax
	andnl	%ecx, %eax, %eax
	movq	632(%rsp), %rdx                 # 8-byte Reload
	leal	7(%rdx), %ecx
	sarl	$3, %ecx
	movl	%edx, 7008(%rsp)
	sarl	$3, %edx
	movl	%edx, 7012(%rsp)
	movl	%eax, 7016(%rsp)
	movq	128(%rsp), %rax                 # 8-byte Reload
	movq	%rax, 7024(%rsp)
	movq	$0, 7032(%rsp)
	movq	1808(%rsp), %rax                # 8-byte Reload
	movq	%rax, 7040(%rsp)
	movq	128(%rbp), %rax
	movq	%rax, 7048(%rsp)
	leaq	train_cost_model.par_for.prediction_output.s0.n.n(%rip), %rsi
	leaq	7008(%rsp), %r8
	xorl	%edi, %edi
	xorl	%edx, %edx
	callq	halide_do_par_for@PLT
	testl	%eax, %eax
	movl	1568(%rsp), %ecx                # 4-byte Reload
	jne	.LBB0_318
# %bb.236:                              # %"assert succeeded568"
	movq	96(%rsp), %rdx                  # 8-byte Reload
	movl	%edx, %eax
	shlq	$2, %rdx
	cmpl	$536870912, %eax                # imm = 0x20000000
	jae	.LBB0_403
# %bb.237:                              # %"assert succeeded570"
	movl	%ecx, 1568(%rsp)                # 4-byte Spill
	addq	$4, %rdx
	xorl	%edi, %edi
	movq	%rdx, %rsi
	callq	halide_malloc@PLT
	testq	%rax, %rax
	je	.LBB0_404
# %bb.238:                              # %"assert succeeded572"
	movq	%rax, %r13
	movq	352(%rsp), %rbx                 # 8-byte Reload
	movl	%ebx, 2376(%rsp)
	movl	24(%rsp), %r12d                 # 4-byte Reload
	movl	%r12d, 2380(%rsp)
	movq	%rax, 2384(%rsp)
	movq	$0, 2392(%rsp)
	leaq	train_cost_model.par_for.sum.s0.n.n(%rip), %rsi
	leaq	2376(%rsp), %r8
	xorl	%edi, %edi
	xorl	%edx, %edx
	movl	1344(%rsp), %r14d               # 4-byte Reload
	movl	%r14d, %ecx
	callq	halide_do_par_for@PLT
	testl	%eax, %eax
	jne	.LBB0_333
# %bb.239:                              # %"consume conv1_stage2575"
	movl	%ebx, 6296(%rsp)
	movl	200(%rsp), %eax                 # 4-byte Reload
	movl	%eax, 6300(%rsp)
	movl	%r15d, 6304(%rsp)
	movl	%r12d, 6308(%rsp)
	movl	1568(%rsp), %r12d               # 4-byte Reload
	movl	%r12d, 6312(%rsp)
	movq	72(%rsp), %rax                  # 8-byte Reload
	movq	%rax, 6320(%rsp)
	movq	$0, 6328(%rsp)
	movq	%r13, 6336(%rsp)
	movq	$0, 6344(%rsp)
	leaq	train_cost_model.par_for.sum.s1.n.n(%rip), %rsi
	leaq	6296(%rsp), %r8
	xorl	%edi, %edi
	xorl	%edx, %edx
	movl	%r14d, %ecx
	callq	halide_do_par_for@PLT
	testl	%eax, %eax
	jne	.LBB0_333
# %bb.240:                              # %"produce sum$1"
	movl	$0, 7328(%rsp)
	testl	%ebx, %ebx
	movq	712(%rsp), %rax                 # 8-byte Reload
	movl	536(%rsp), %edx                 # 4-byte Reload
	jle	.LBB0_252
# %bb.241:                              # %"for sum$1.s1.r102$x.preheader"
	movslq	640(%rsp), %r9                  # 4-byte Folded Reload
	movslq	848(%rsp), %rcx                 # 4-byte Folded Reload
	movslq	%edx, %r8
	vmovss	.LCPI0_91(%rip), %xmm0          # xmm0 = mem[0],zero,zero,zero
	vdivss	(%rax,%rcx,4), %xmm0, %xmm1
	movl	%ebx, %r11d
	cmpl	$8, %ebx
	jae	.LBB0_243
# %bb.242:
	vxorps	%xmm2, %xmm2, %xmm2
	xorl	%ecx, %ecx
	movq	128(%rsp), %r14                 # 8-byte Reload
	jmp	.LBB0_249
.LBB0_243:                              # %vector.ph
	movl	%r11d, %ecx
	andl	$-8, %ecx
	vbroadcastss	%xmm1, %ymm2
	leaq	-8(%rcx), %rdx
	movq	%rdx, %r10
	shrq	$3, %r10
	incq	%r10
	testq	%rdx, %rdx
	movq	128(%rsp), %r14                 # 8-byte Reload
	je	.LBB0_312
# %bb.244:                              # %vector.ph.new
	leaq	(,%r9,4), %rsi
	movq	%rax, %rdx
	subq	%rsi, %rdx
	addq	$32, %rdx
	leaq	(,%r8,4), %rdi
	movq	%r14, %rsi
	subq	%rdi, %rsi
	addq	$32, %rsi
	movq	%r10, %rdi
	andq	$-2, %rdi
	negq	%rdi
	vxorps	%xmm3, %xmm3, %xmm3
	xorl	%ebx, %ebx
	vbroadcastss	.LCPI0_100(%rip), %ymm4 # ymm4 = [1.00000001E-10,1.00000001E-10,1.00000001E-10,1.00000001E-10,1.00000001E-10,1.00000001E-10,1.00000001E-10,1.00000001E-10]
	vbroadcastss	.LCPI0_91(%rip), %ymm5  # ymm5 = [1.0E+0,1.0E+0,1.0E+0,1.0E+0,1.0E+0,1.0E+0,1.0E+0,1.0E+0]
	vbroadcastss	.LCPI0_101(%rip), %ymm6 # ymm6 = [9.99999974E-6,9.99999974E-6,9.99999974E-6,9.99999974E-6,9.99999974E-6,9.99999974E-6,9.99999974E-6,9.99999974E-6]
	.p2align	4, 0x90
.LBB0_245:                              # %vector.body
                                        # =>This Inner Loop Header: Depth=1
	vmulps	-32(%rsi,%rbx,4), %ymm2, %ymm7
	vmaxps	%ymm4, %ymm7, %ymm7
	vdivps	%ymm7, %ymm5, %ymm7
	vmulps	-32(%rdx,%rbx,4), %ymm2, %ymm8
	vdivps	%ymm8, %ymm5, %ymm8
	vmulps	(%rsi,%rbx,4), %ymm2, %ymm9
	vmaxps	%ymm4, %ymm9, %ymm9
	vdivps	%ymm9, %ymm5, %ymm9
	vsubps	%ymm8, %ymm7, %ymm7
	vmulps	(%rdx,%rbx,4), %ymm2, %ymm8
	vfmadd213ps	%ymm3, %ymm7, %ymm7     # ymm7 = (ymm7 * ymm7) + ymm3
	vdivps	%ymm8, %ymm5, %ymm3
	vfmadd231ps	(%r13,%rbx,4), %ymm6, %ymm7 # ymm7 = (ymm6 * mem) + ymm7
	vsubps	%ymm3, %ymm9, %ymm3
	vfmadd213ps	%ymm7, %ymm3, %ymm3     # ymm3 = (ymm3 * ymm3) + ymm7
	vfmadd231ps	32(%r13,%rbx,4), %ymm6, %ymm3 # ymm3 = (ymm6 * mem) + ymm3
	addq	$16, %rbx
	addq	$2, %rdi
	jne	.LBB0_245
# %bb.246:                              # %middle.block.unr-lcssa
	testb	$1, %r10b
	je	.LBB0_248
.LBB0_247:                              # %vector.body.epil
	movq	%rbx, %rdx
	subq	%r8, %rdx
	vmulps	(%r14,%rdx,4), %ymm2, %ymm4
	vbroadcastss	.LCPI0_100(%rip), %ymm5 # ymm5 = [1.00000001E-10,1.00000001E-10,1.00000001E-10,1.00000001E-10,1.00000001E-10,1.00000001E-10,1.00000001E-10,1.00000001E-10]
	vmaxps	%ymm5, %ymm4, %ymm4
	vbroadcastss	.LCPI0_91(%rip), %ymm5  # ymm5 = [1.0E+0,1.0E+0,1.0E+0,1.0E+0,1.0E+0,1.0E+0,1.0E+0,1.0E+0]
	vdivps	%ymm4, %ymm5, %ymm4
	movq	%rbx, %rdx
	subq	%r9, %rdx
	vmulps	(%rax,%rdx,4), %ymm2, %ymm2
	vdivps	%ymm2, %ymm5, %ymm2
	vsubps	%ymm2, %ymm4, %ymm2
	vbroadcastss	.LCPI0_101(%rip), %ymm4 # ymm4 = [9.99999974E-6,9.99999974E-6,9.99999974E-6,9.99999974E-6,9.99999974E-6,9.99999974E-6,9.99999974E-6,9.99999974E-6]
	vfmadd213ps	%ymm3, %ymm2, %ymm2     # ymm2 = (ymm2 * ymm2) + ymm3
	vfmadd231ps	(%r13,%rbx,4), %ymm4, %ymm2 # ymm2 = (ymm4 * mem) + ymm2
	vmovaps	%ymm2, %ymm3
.LBB0_248:                              # %middle.block
	vextractf128	$1, %ymm3, %xmm2
	vaddps	%xmm2, %xmm3, %xmm2
	vpermilpd	$1, %xmm2, %xmm3        # xmm3 = xmm2[1,0]
	vaddps	%xmm3, %xmm2, %xmm2
	vmovshdup	%xmm2, %xmm3            # xmm3 = xmm2[1,1,3,3]
	vaddss	%xmm3, %xmm2, %xmm2
	cmpq	%r11, %rcx
	movq	40(%rsp), %r15                  # 8-byte Reload
	je	.LBB0_251
.LBB0_249:                              # %"for sum$1.s1.r102$x.preheader1581"
	shlq	$2, %r9
	subq	%r9, %rax
	shlq	$2, %r8
	movq	%r14, %rdx
	subq	%r8, %rdx
	vmovss	.LCPI0_100(%rip), %xmm3         # xmm3 = mem[0],zero,zero,zero
	vmovss	.LCPI0_101(%rip), %xmm4         # xmm4 = mem[0],zero,zero,zero
	vmovaps	%xmm2, %xmm5
	.p2align	4, 0x90
.LBB0_250:                              # %"for sum$1.s1.r102$x"
                                        # =>This Inner Loop Header: Depth=1
	vmulss	(%rdx,%rcx,4), %xmm1, %xmm2
	vmaxss	%xmm3, %xmm2, %xmm2
	vmulss	(%rax,%rcx,4), %xmm1, %xmm6
	vdivss	%xmm2, %xmm0, %xmm2
	vdivss	%xmm6, %xmm0, %xmm6
	vsubss	%xmm6, %xmm2, %xmm2
	vfmadd213ss	%xmm5, %xmm2, %xmm2     # xmm2 = (xmm2 * xmm2) + xmm5
	vfmadd231ss	(%r13,%rcx,4), %xmm4, %xmm2 # xmm2 = (xmm4 * mem) + xmm2
	incq	%rcx
	vmovaps	%xmm2, %xmm5
	cmpq	%rcx, %r11
	jne	.LBB0_250
.LBB0_251:                              # %call_destructor.exit893.loopexit
	vmovss	%xmm2, 7328(%rsp)
.LBB0_252:                              # %call_destructor.exit893
	xorl	%edi, %edi
	movq	128(%rsp), %rsi                 # 8-byte Reload
	vzeroupper
	callq	halide_free@PLT
	xorl	%edi, %edi
	movq	%r13, %rsi
	callq	halide_free@PLT
	movl	7328(%rsp), %eax
	movq	1304(%rsp), %rcx                # 8-byte Reload
	movl	%eax, (%rcx)
	movslq	88(%rsp), %rcx                  # 4-byte Folded Reload
	movslq	%r12d, %rax
	movq	%rax, 672(%rsp)                 # 8-byte Spill
	movl	696(%rsp), %eax                 # 4-byte Reload
	movq	%rax, 1304(%rsp)                # 8-byte Spill
	cmpl	$0, 424(%rsp)                   # 4-byte Folded Reload
	jle	.LBB0_260
# %bb.253:                              # %"for load_cost_output.s0.n.preheader"
	movslq	656(%rsp), %r9                  # 4-byte Folded Reload
	leaq	(,%r9,4), %rdx
	movq	%rcx, 1808(%rsp)                # 8-byte Spill
	leaq	(,%rcx,4), %rax
	subq	%rax, %rdx
	movq	%rdx, 416(%rsp)                 # 8-byte Spill
	movq	1304(%rsp), %r8                 # 8-byte Reload
	leaq	(%r9,%r8,8), %rcx
	movq	672(%rsp), %rdi                 # 8-byte Reload
	leaq	(%rdi,%rdi,8), %rax
	subq	%rax, %rcx
	movq	%rcx, 352(%rsp)                 # 8-byte Spill
	leaq	(,%rdi,8), %rax
	movq	%rdi, %rsi
	subq	%rax, %rsi
	leaq	(%r8,%r8,2), %rcx
	leaq	(%r9,%rcx,2), %rdx
	addq	%rdx, %rsi
	movq	%rsi, 320(%rsp)                 # 8-byte Spill
	leaq	(%r8,%r8,4), %r13
	leaq	(%r9,%r13), %rdx
	leaq	(%rdi,%rdi), %rbx
	leaq	(%rbx,%rbx,2), %rsi
	subq	%rsi, %rdx
	movq	%rdx, 448(%rsp)                 # 8-byte Spill
	leaq	(,%r8,8), %rdx
	subq	%r8, %rdx
	addq	%r9, %rdx
	subq	%rax, %rdx
	movq	%rdx, 224(%rsp)                 # 8-byte Spill
	leaq	(%r8,%r8,8), %rdx
	addq	%r9, %rdx
	leaq	(%rbx,%rbx,4), %rax
	subq	%rax, %rdx
	movq	%rdx, 160(%rsp)                 # 8-byte Spill
	leaq	(%r9,%r13,2), %rsi
	leaq	(%rdi,%rdi,4), %rdx
	leaq	(%rdi,%rdx,2), %rax
	subq	%rax, %rsi
	movq	%rsi, 288(%rsp)                 # 8-byte Spill
	leaq	(%r8,%r13,2), %rax
	addq	%r9, %rax
	leaq	(,%rdi,4), %rbx
	leaq	(%rbx,%rbx,2), %rbx
	subq	%rbx, %rax
	movq	%rax, 48(%rsp)                  # 8-byte Spill
	leaq	(%rdi,%rdi,2), %rbx
	leaq	(%rdi,%rbx,4), %rbx
	leaq	(%r9,%rcx,4), %rax
	subq	%rbx, %rax
	movq	%rax, 24(%rsp)                  # 8-byte Spill
	leaq	(%r8,%rcx,4), %rcx
	addq	%r9, %rcx
	movq	%rdi, %rax
	shlq	$4, %rax
	movq	%rdi, %rsi
	subq	%rax, %rsi
	addq	%rdi, %rsi
	addq	%rcx, %rsi
	movq	%rsi, 96(%rsp)                  # 8-byte Spill
	movq	%r8, %rsi
	shlq	$4, %rsi
	subq	%r8, %rsi
	subq	%r8, %rsi
	movq	%r9, 512(%rsp)                  # 8-byte Spill
	addq	%r9, %rsi
	leaq	(%rdx,%rdx,2), %rdx
	subq	%rdx, %rsi
	leaq	(,%r13,2), %rcx
	addq	%r13, %rcx
	addq	%r9, %rcx
	subq	%rax, %rcx
	movq	%rcx, 576(%rsp)                 # 8-byte Spill
	movl	88(%rsp), %edx                  # 4-byte Reload
	movl	832(%rsp), %r8d                 # 4-byte Reload
	subl	%edx, %r8d
	movl	824(%rsp), %ecx                 # 4-byte Reload
	subl	%edx, %ecx
	movl	952(%rsp), %r10d                # 4-byte Reload
	subl	%edx, %r10d
	subl	%edx, 272(%rsp)                 # 4-byte Folded Spill
	movl	968(%rsp), %r11d                # 4-byte Reload
	subl	%edx, %r11d
	movl	856(%rsp), %ebx                 # 4-byte Reload
	subl	%edx, %ebx
	movl	680(%rsp), %r14d                # 4-byte Reload
	subl	%edx, %r14d
	movl	208(%rsp), %r15d                # 4-byte Reload
	subl	%edx, %r15d
	movl	216(%rsp), %r13d                # 4-byte Reload
	subl	%edx, %r13d
	movq	688(%rsp), %r12                 # 8-byte Reload
	subl	%edx, %r12d
	movl	144(%rsp), %r9d                 # 4-byte Reload
	subl	%edx, %r9d
	movl	488(%rsp), %edi                 # 4-byte Reload
	subl	%edx, %edi
	movl	152(%rsp), %eax                 # 4-byte Reload
	subl	%edx, %eax
	movslq	%r8d, %rdx
	movslq	%ecx, %r8
	movslq	%r10d, %r10
	movslq	272(%rsp), %rcx                 # 4-byte Folded Reload
	movq	%rcx, 1824(%rsp)                # 8-byte Spill
	movslq	%r11d, %r11
	movslq	%ebx, %rbx
	movslq	%r14d, %rcx
	movq	%rcx, 1568(%rsp)                # 8-byte Spill
	movslq	%r15d, %rcx
	movq	%rcx, 1344(%rsp)                # 8-byte Spill
	movslq	%r13d, %r13
	movslq	%r12d, %r12
	movslq	%r9d, %r9
	movslq	%edi, %rdi
	movslq	%eax, %r14
	movq	512(%rsp), %rcx                 # 8-byte Reload
	addq	%rcx, %rdx
	movq	80(%rsp), %rax                  # 8-byte Reload
	leaq	(%rax,%rdx,4), %rdx
	movq	%rdx, 544(%rsp)                 # 8-byte Spill
	addq	%rcx, %r8
	leaq	(%rax,%r8,4), %rdx
	movq	%rdx, 504(%rsp)                 # 8-byte Spill
	addq	%rcx, %r10
	leaq	(%rax,%r10,4), %rdx
	movq	%rdx, 272(%rsp)                 # 8-byte Spill
	movq	1824(%rsp), %rdx                # 8-byte Reload
	addq	%rcx, %rdx
	leaq	(%rax,%rdx,4), %rdx
	movq	%rdx, 712(%rsp)                 # 8-byte Spill
	addq	%rcx, %r11
	leaq	(%rax,%r11,4), %rdx
	movq	%rdx, 704(%rsp)                 # 8-byte Spill
	addq	%rcx, %rbx
	leaq	(%rax,%rbx,4), %rdx
	movq	%rdx, 640(%rsp)                 # 8-byte Spill
	movq	40(%rsp), %r15                  # 8-byte Reload
	movq	1568(%rsp), %rdx                # 8-byte Reload
	addq	%rcx, %rdx
	leaq	(%rax,%rdx,4), %rdx
	movq	%rdx, 632(%rsp)                 # 8-byte Spill
	addq	%rax, 416(%rsp)                 # 8-byte Folded Spill
	movq	1344(%rsp), %rdx                # 8-byte Reload
	addq	%rcx, %rdx
	leaq	(%rax,%rdx,4), %rdx
	movq	%rdx, 1456(%rsp)                # 8-byte Spill
	addq	%rcx, %r13
	leaq	(%rax,%r13,4), %rdx
	movq	%rdx, 1448(%rsp)                # 8-byte Spill
	addq	%rcx, %r12
	leaq	(%rax,%r12,4), %rdx
	movq	%rdx, 1440(%rsp)                # 8-byte Spill
	addq	%rcx, %r9
	leaq	(%rax,%r9,4), %rdx
	movq	%rdx, 1432(%rsp)                # 8-byte Spill
	addq	%rcx, %rdi
	leaq	(%rax,%rdi,4), %rdx
	movq	%rdx, 1424(%rsp)                # 8-byte Spill
	addq	%rcx, %r14
	movq	%rcx, %rbx
	leaq	(%rax,%r14,4), %rax
	movq	%rax, 1416(%rsp)                # 8-byte Spill
	movq	72(%rsp), %rax                  # 8-byte Reload
	movq	352(%rsp), %rcx                 # 8-byte Reload
	leaq	(%rax,%rcx,4), %rdx
	movq	%rdx, 1336(%rsp)                # 8-byte Spill
	movslq	200(%rsp), %rdi                 # 4-byte Folded Reload
	shlq	$7, %rdi
	movq	320(%rsp), %rcx                 # 8-byte Reload
	leaq	(%rax,%rcx,4), %rdx
	movq	%rdx, 1408(%rsp)                # 8-byte Spill
	movq	448(%rsp), %rcx                 # 8-byte Reload
	leaq	(%rax,%rcx,4), %rdx
	movq	%rdx, 1328(%rsp)                # 8-byte Spill
	movq	224(%rsp), %rcx                 # 8-byte Reload
	leaq	(%rax,%rcx,4), %rdx
	movq	%rdx, 1400(%rsp)                # 8-byte Spill
	movq	160(%rsp), %rcx                 # 8-byte Reload
	leaq	(%rax,%rcx,4), %rdx
	movq	%rdx, 1392(%rsp)                # 8-byte Spill
	movq	288(%rsp), %rcx                 # 8-byte Reload
	leaq	(%rax,%rcx,4), %rdx
	movq	%rdx, 496(%rsp)                 # 8-byte Spill
	movq	48(%rsp), %rcx                  # 8-byte Reload
	leaq	(%rax,%rcx,4), %rdx
	movq	%rdx, 536(%rsp)                 # 8-byte Spill
	movq	24(%rsp), %rcx                  # 8-byte Reload
	leaq	(%rax,%rcx,4), %rdx
	movq	%rdx, 888(%rsp)                 # 8-byte Spill
	movq	96(%rsp), %rcx                  # 8-byte Reload
	leaq	(%rax,%rcx,4), %rdx
	movq	%rdx, 624(%rsp)                 # 8-byte Spill
	leaq	(%rax,%rsi,4), %rdx
	movq	%rdx, 880(%rsp)                 # 8-byte Spill
	movq	576(%rsp), %rcx                 # 8-byte Reload
	leaq	(%rax,%rcx,4), %rax
	movq	%rax, 696(%rsp)                 # 8-byte Spill
	vmovss	.LCPI0_91(%rip), %xmm8          # xmm8 = mem[0],zero,zero,zero
	vpxor	%xmm9, %xmm9, %xmm9
	vmovaps	.LCPI0_102(%rip), %ymm10        # ymm10 = [0,0,1,2,1,3,1,3]
	vpxor	%xmm11, %xmm11, %xmm11
	movq	408(%rsp), %rax                 # 8-byte Reload
	leaq	(,%rax,4), %rcx
	xorl	%r12d, %r12d
	movq	%rbx, %rax
	movq	%rdi, 688(%rsp)                 # 8-byte Spill
	movq	%rcx, 680(%rsp)                 # 8-byte Spill
	movq	688(%rsp), %r13                 # 8-byte Reload
	.p2align	4, 0x90
.LBB0_254:                              # %"for load_cost_output.s0.n"
                                        # =>This Loop Header: Depth=1
                                        #     Child Loop BB0_256 Depth 2
	movq	%rax, 552(%rsp)                 # 8-byte Spill
	vpxor	%xmm12, %xmm12, %xmm12
	movl	$0, %edi
	testl	%r15d, %r15d
	jle	.LBB0_258
# %bb.255:                              # %"for f1.s1.r77$x.preheader"
                                        #   in Loop: Header=BB0_254 Depth=1
	vpxor	%xmm12, %xmm12, %xmm12
	movq	696(%rsp), %r10                 # 8-byte Reload
	movq	880(%rsp), %rbx                 # 8-byte Reload
	movq	624(%rsp), %rdi                 # 8-byte Reload
	movq	888(%rsp), %r8                  # 8-byte Reload
	movq	536(%rsp), %rdx                 # 8-byte Reload
	movq	496(%rsp), %rcx                 # 8-byte Reload
	movq	1392(%rsp), %r14                # 8-byte Reload
	movq	1400(%rsp), %rax                # 8-byte Reload
	movq	%rax, 352(%rsp)                 # 8-byte Spill
	movq	1328(%rsp), %rax                # 8-byte Reload
	movq	%rax, 320(%rsp)                 # 8-byte Spill
	movq	1408(%rsp), %rax                # 8-byte Reload
	movq	%rax, 448(%rsp)                 # 8-byte Spill
	movq	1336(%rsp), %rax                # 8-byte Reload
	movq	%rax, 224(%rsp)                 # 8-byte Spill
	movq	1416(%rsp), %rax                # 8-byte Reload
	movq	%rax, 160(%rsp)                 # 8-byte Spill
	movq	1424(%rsp), %rax                # 8-byte Reload
	movq	%rax, 288(%rsp)                 # 8-byte Spill
	movq	1432(%rsp), %rax                # 8-byte Reload
	movq	%rax, 48(%rsp)                  # 8-byte Spill
	movq	1440(%rsp), %rax                # 8-byte Reload
	movq	%rax, 24(%rsp)                  # 8-byte Spill
	movq	1448(%rsp), %rax                # 8-byte Reload
	movq	%rax, 96(%rsp)                  # 8-byte Spill
	movq	1456(%rsp), %rax                # 8-byte Reload
	movq	%rax, 576(%rsp)                 # 8-byte Spill
	movq	416(%rsp), %rax                 # 8-byte Reload
	movq	%rax, 1344(%rsp)                # 8-byte Spill
	movq	632(%rsp), %rax                 # 8-byte Reload
	movq	%rax, 1568(%rsp)                # 8-byte Spill
	movq	640(%rsp), %rax                 # 8-byte Reload
	movq	%rax, 1824(%rsp)                # 8-byte Spill
	movq	704(%rsp), %rax                 # 8-byte Reload
	movq	%rax, 440(%rsp)                 # 8-byte Spill
	movq	712(%rsp), %rax                 # 8-byte Reload
	movq	%rax, 128(%rsp)                 # 8-byte Spill
	movq	272(%rsp), %rax                 # 8-byte Reload
	movq	%rax, 1952(%rsp)                # 8-byte Spill
	movq	504(%rsp), %rax                 # 8-byte Reload
	movq	%rax, 432(%rsp)                 # 8-byte Spill
	movq	544(%rsp), %rax                 # 8-byte Reload
	movq	%rax, 8(%rsp)                   # 8-byte Spill
	movq	648(%rsp), %rax                 # 8-byte Reload
	movq	%rax, 56(%rsp)                  # 8-byte Spill
	movq	680(%rsp), %rsi                 # 8-byte Reload
	.p2align	4, 0x90
.LBB0_256:                              # %"for f1.s1.r77$x"
                                        #   Parent Loop BB0_254 Depth=1
                                        # =>  This Inner Loop Header: Depth=2
	movq	160(%rsp), %rax                 # 8-byte Reload
	vmovss	(%rax,%r12), %xmm5              # xmm5 = mem[0],zero,zero,zero
	movq	288(%rsp), %rax                 # 8-byte Reload
	vmulss	(%rax,%r12), %xmm5, %xmm5
	movq	%rdx, 656(%rsp)                 # 8-byte Spill
	vmovss	(%rdx,%r12), %xmm6              # xmm6 = mem[0],zero,zero,zero
	movq	%rcx, 520(%rsp)                 # 8-byte Spill
	vinsertps	$16, (%rcx,%r12), %xmm6, %xmm6 # xmm6 = xmm6[0],mem[0],xmm6[2,3]
	movq	%r10, 424(%rsp)                 # 8-byte Spill
	vmovss	(%r10,%r12), %xmm7              # xmm7 = mem[0],zero,zero,zero
	movq	%r14, 64(%rsp)                  # 8-byte Spill
	vinsertps	$32, (%r14,%r12), %xmm6, %xmm6 # xmm6 = xmm6[0,1],mem[0],xmm6[3]
	movq	%rbx, 560(%rsp)                 # 8-byte Spill
	vinsertps	$16, (%rbx,%r12), %xmm7, %xmm7 # xmm7 = xmm7[0],mem[0],xmm7[2,3]
	movq	224(%rsp), %rax                 # 8-byte Reload
	vinsertps	$48, (%rax,%r12), %xmm6, %xmm6 # xmm6 = xmm6[0,1,2],mem[0]
	movq	48(%rsp), %rax                  # 8-byte Reload
	vmovss	(%rax,%r12), %xmm0              # xmm0 = mem[0],zero,zero,zero
	movq	%rdi, 896(%rsp)                 # 8-byte Spill
	vinsertps	$32, (%rdi,%r12), %xmm7, %xmm7 # xmm7 = xmm7[0,1],mem[0],xmm7[3]
	vmaxss	%xmm8, %xmm5, %xmm5
	movq	%r8, 208(%rsp)                  # 8-byte Spill
	vinsertps	$48, (%r8,%r12), %xmm7, %xmm7 # xmm7 = xmm7[0,1,2],mem[0]
	vinsertf128	$1, %xmm6, %ymm7, %ymm6
	vmaxps	%ymm9, %ymm6, %ymm6
	movq	24(%rsp), %rax                  # 8-byte Reload
	vmovss	(%rax,%r12), %xmm7              # xmm7 = mem[0],zero,zero,zero
	movq	96(%rsp), %rax                  # 8-byte Reload
	vmovss	(%rax,%r12), %xmm1              # xmm1 = mem[0],zero,zero,zero
	movq	1568(%rsp), %rbx                # 8-byte Reload
	vmovss	(%rbx,%r12), %xmm2              # xmm2 = mem[0],zero,zero,zero
	vinsertps	$16, %xmm0, %xmm5, %xmm5 # xmm5 = xmm5[0],xmm0[0],xmm5[2,3]
	movq	1824(%rsp), %r9                 # 8-byte Reload
	vinsertps	$16, (%r9,%r12), %xmm2, %xmm2 # xmm2 = xmm2[0],mem[0],xmm2[2,3]
	vinsertps	$32, %xmm7, %xmm2, %xmm2 # xmm2 = xmm2[0,1],xmm7[0],xmm2[3]
	vinsertps	$32, %xmm7, %xmm5, %xmm5 # xmm5 = xmm5[0,1],xmm7[0],xmm5[3]
	movq	576(%rsp), %r14                 # 8-byte Reload
	vbroadcastss	(%r14,%r12), %xmm7
	movq	440(%rsp), %r8                  # 8-byte Reload
	vinsertps	$32, (%r8,%r12), %xmm7, %xmm7 # xmm7 = xmm7[0,1],mem[0],xmm7[3]
	vinsertps	$48, %xmm1, %xmm5, %xmm5 # xmm5 = xmm5[0,1,2],xmm1[0]
	vinsertps	$48, %xmm1, %xmm2, %xmm1 # xmm1 = xmm2[0,1,2],xmm1[0]
	movq	128(%rsp), %rdi                 # 8-byte Reload
	vinsertps	$48, (%rdi,%r12), %xmm7, %xmm2 # xmm2 = xmm7[0,1,2],mem[0]
	vpermps	%ymm5, %ymm10, %ymm5
	vinsertf128	$1, %xmm2, %ymm1, %ymm1
	vmulps	%ymm6, %ymm1, %ymm1
	vmulps	%ymm1, %ymm5, %ymm1
	movq	1344(%rsp), %r11                # 8-byte Reload
	vmovss	(%r11,%r12), %xmm2              # xmm2 = mem[0],zero,zero,zero
	movq	352(%rsp), %rax                 # 8-byte Reload
	vmovss	(%rax,%r12), %xmm5              # xmm5 = mem[0],zero,zero,zero
	vmaxss	%xmm11, %xmm5, %xmm6
	movq	320(%rsp), %rdx                 # 8-byte Reload
	vmovss	(%rdx,%r12), %xmm5              # xmm5 = mem[0],zero,zero,zero
	vmaxss	%xmm11, %xmm5, %xmm7
	movq	448(%rsp), %r10                 # 8-byte Reload
	vmovss	(%r10,%r12), %xmm5              # xmm5 = mem[0],zero,zero,zero
	vmaxss	%xmm11, %xmm5, %xmm3
	movq	1952(%rsp), %r15                # 8-byte Reload
	vmulss	(%r15,%r12), %xmm0, %xmm0
	vextractf128	$1, %ymm1, %xmm5
	vaddps	%xmm5, %xmm1, %xmm1
	movq	432(%rsp), %rcx                 # 8-byte Reload
	vmulss	(%rcx,%r12), %xmm2, %xmm4
	vpermilpd	$1, %xmm1, %xmm5        # xmm5 = xmm1[1,0]
	vaddps	%xmm5, %xmm1, %xmm1
	movq	8(%rsp), %rax                   # 8-byte Reload
	vmulss	(%rax,%r12), %xmm2, %xmm2
	vmovshdup	%xmm1, %xmm5            # xmm5 = xmm1[1,1,3,3]
	vaddss	%xmm5, %xmm1, %xmm5
	addq	%rsi, %rax
	movq	%rax, 8(%rsp)                   # 8-byte Spill
	vfmadd231ss	%xmm0, %xmm6, %xmm5     # xmm5 = (xmm6 * xmm0) + xmm5
	addq	%rsi, %rcx
	movq	%rcx, 432(%rsp)                 # 8-byte Spill
	addq	%rsi, %r15
	movq	%r15, 1952(%rsp)                # 8-byte Spill
	addq	%rsi, %rdi
	movq	%rdi, 128(%rsp)                 # 8-byte Spill
	vfmadd231ss	%xmm4, %xmm7, %xmm5     # xmm5 = (xmm7 * xmm4) + xmm5
	addq	%rsi, %r8
	movq	%r8, 440(%rsp)                  # 8-byte Spill
	addq	%rsi, %r9
	movq	%r9, 1824(%rsp)                 # 8-byte Spill
	addq	%rsi, %rbx
	movq	%rbx, 1568(%rsp)                # 8-byte Spill
	vfmadd231ss	%xmm2, %xmm3, %xmm5     # xmm5 = (xmm3 * xmm2) + xmm5
	addq	%rsi, %r11
	movq	%r11, 1344(%rsp)                # 8-byte Spill
	addq	%rsi, %r14
	movq	%r14, 576(%rsp)                 # 8-byte Spill
	addq	%rsi, 96(%rsp)                  # 8-byte Folded Spill
	addq	%rsi, 24(%rsp)                  # 8-byte Folded Spill
	addq	%rsi, 48(%rsp)                  # 8-byte Folded Spill
	addq	%rsi, 288(%rsp)                 # 8-byte Folded Spill
	addq	%rsi, 160(%rsp)                 # 8-byte Folded Spill
	addq	%r13, 224(%rsp)                 # 8-byte Folded Spill
	addq	%r13, %r10
	movq	%r10, 448(%rsp)                 # 8-byte Spill
	addq	%r13, %rdx
	movq	%rdx, 320(%rsp)                 # 8-byte Spill
	addq	%r13, 352(%rsp)                 # 8-byte Folded Spill
	vaddss	%xmm5, %xmm12, %xmm12
	movq	64(%rsp), %r14                  # 8-byte Reload
	addq	%r13, %r14
	movq	520(%rsp), %rcx                 # 8-byte Reload
	addq	%r13, %rcx
	movq	656(%rsp), %rdx                 # 8-byte Reload
	addq	%r13, %rdx
	movq	208(%rsp), %r8                  # 8-byte Reload
	addq	%r13, %r8
	movq	896(%rsp), %rdi                 # 8-byte Reload
	addq	%r13, %rdi
	movq	560(%rsp), %rbx                 # 8-byte Reload
	addq	%r13, %rbx
	movq	424(%rsp), %r10                 # 8-byte Reload
	addq	%r13, %r10
	decq	56(%rsp)                        # 8-byte Folded Spill
	jne	.LBB0_256
# %bb.257:                              # %"consume f1.loopexit"
